                             LAB_00101768                                    XREF[1]:     002ec668(*)  
        00101768 3c 07 06 0c  	   jal        MemoryAllocate                                   void * MemoryAllocate(uint memor
        0010176c 14 00 04 24  	   _li        a0,0x14
        00101770 2d 38 40 00  	   move       a3,v0
        00101774 fc ff 0a 24  	   li         t2,-0x4
        00101778 0c 00 e3 8c  	   lw         v1,0xc(a3)
        0010177c f3 ff 0b 24  	   li         t3,-0xd
        00101780 cf ff 0c 24  	   li         t4,-0x31
        00101784 3f ff 02 24  	   li         v0,-0xc1
        00101788 24 18 6a 00  	   and        v1,v1,t2
        0010178c ff fc 05 24  	   li         a1,-0x301
        00101790 24 18 6b 00  	   and        v1,v1,t3
        00101794 ff f3 08 24  	   li         t0,-0xc01
        00101798 24 18 6c 00  	   and        v1,v1,t4
        0010179c ff ef 09 24  	   li         t1,-0x1001
        001017a0 24 18 62 00  	   and        v1,v1,v0
        001017a4 e0 ff 04 3c  	   lui        a0,0xffe0
        001017a8 24 18 65 00  	   and        v1,v1,a1
        001017ac ff 1f 84 34  	   ori        a0,a0,0x1fff
        001017b0 24 18 68 00  	   and        v1,v1,t0
        001017b4 1f e0 02 3c  	   lui        v0,0xe01f
        001017b8 24 18 69 00  	   and        v1,v1,t1
        001017bc 10 00 e6 8c  	   lw         a2,0x10(a3)
        001017c0 24 18 64 00  	   and        v1,v1,a0
        001017c4 ff ff 42 34  	   ori        v0,v0,0xffff
        001017c8 ff df 04 3c  	   lui        a0,0xdfff
        001017cc 24 18 62 00  	   and        v1,v1,v0
        001017d0 ff ff 84 34  	   ori        a0,a0,0xffff
        001017d4 24 30 ca 00  	   and        a2,a2,t2
        001017d8 24 18 64 00  	   and        v1,v1,a0
        001017dc ff bf 02 3c  	   lui        v0,0xbfff
        001017e0 ff ff 42 34  	   ori        v0,v0,0xffff
        001017e4 24 30 cb 00  	   and        a2,a2,t3
        001017e8 ff 00 04 3c  	   lui        a0,0xff
        001017ec 30 00 05 3c  	   lui        a1,0x30
        001017f0 24 18 62 00  	   and        v1,v1,v0
        001017f4 24 30 cc 00  	   and        a2,a2,t4
        001017f8 18 f6 a5 24  	   addiu      a1,a1,-0x9e8
        001017fc ff ff 84 34  	   ori        a0,a0,0xffff
        00101800 00 00 e4 ac  	   sw         a0,0x0(a3)
        00101804 2d 10 e0 00  	   move       v0,a3
        00101808 08 00 e5 ac  	   sw         a1=>DAT_002ff618,0x8(a3)
        0010180c 0c 00 e3 ac  	   sw         v1,0xc(a3)
        00101810 10 00 e6 ac  	   sw         a2,0x10(a3)
        00101814 03 15 00 10  	   beq        zero,zero,LAB_00106c24
        00101818 04 00 e0 ac  	   _sw        zero,0x4(a3)
                             LAB_0010181c                                    XREF[1]:     002ec66c(*)  
        0010181c 3c 07 06 0c  	   jal        MemoryAllocate                                   void * MemoryAllocate(uint memor
        00101820 10 00 04 24  	   _li        a0,0x10
        00101824 2d 30 40 00  	   move       a2,v0
        00101828 fd ff 04 24  	   li         a0,-0x3
        0010182c 0c 00 c3 8c  	   lw         v1,0xc(a2)
        00101830 fe ff 02 24  	   li         v0,-0x2
        00101834 fb ff 05 24  	   li         a1,-0x5
        00101838 f7 ff 07 24  	   li         a3,-0x9
        0010183c 24 18 62 00  	   and        v1,v1,v0
        00101840 ef ff 08 24  	   li         t0,-0x11
        00101844 24 18 64 00  	   and        v1,v1,a0
        00101848 ff 00 02 3c  	   lui        v0,0xff
        0010184c 24 18 65 00  	   and        v1,v1,a1
        00101850 ff ff 42 34  	   ori        v0,v0,0xffff
        00101854 24 18 67 00  	   and        v1,v1,a3
        00101858 30 00 04 3c  	   lui        a0,0x30
        0010185c df ff 05 24  	   li         a1,-0x21
        00101860 24 18 68 00  	   and        v1,v1,t0
        00101864 18 f8 84 24  	   addiu      a0,a0,-0x7e8
        00101868 24 18 65 00  	   and        v1,v1,a1
        0010186c 00 00 c2 ac  	   sw         v0,0x0(a2)
        00101870 2d 10 c0 00  	   move       v0,a2
        00101874 08 00 c4 ac  	   sw         a0=>DAT_002ff818,0x8(a2)
        00101878 0c 00 c3 ac  	   sw         v1,0xc(a2)
        0010187c e9 14 00 10  	   beq        zero,zero,LAB_00106c24
        00101880 04 00 c0 ac  	   _sw        zero,0x4(a2)
                             LAB_00101884                                    XREF[1]:     002ec86c(*)  
        00101884 3c 07 06 0c  	   jal        MemoryAllocate                                   void * MemoryAllocate(uint memor
        00101888 0c 00 04 24  	   _li        a0,0xc
        0010188c ff 00 03 3c  	   lui        v1,0xff
        00101890 30 00 04 3c  	   lui        a0,0x30
        00101894 2d 28 40 00  	   move       a1,v0
        00101898 dc 14 00 10  	   beq        zero,zero,LAB_00106c0c
        0010189c 58 f8 84 24  	   _addiu     a0,a0,-0x7a8
                             LAB_001018a0                                    XREF[1]:     002ec868(*)  
        001018a0 3c 07 06 0c  	   jal        MemoryAllocate                                   void * MemoryAllocate(uint memor
        001018a4 0c 00 04 24  	   _li        a0,0xc
        001018a8 ff 00 03 3c  	   lui        v1,0xff
        001018ac 30 00 04 3c  	   lui        a0,0x30
        001018b0 2d 28 40 00  	   move       a1,v0
        001018b4 d5 14 00 10  	   beq        zero,zero,LAB_00106c0c
        001018b8 98 f8 84 24  	   _addiu     a0,a0,-0x768
                             LAB_001018bc                                    XREF[1]:     002ec87c(*)  
        001018bc 3c 07 06 0c  	   jal        MemoryAllocate                                   void * MemoryAllocate(uint memor
        001018c0 0c 00 04 24  	   _li        a0,0xc
        001018c4 ff 00 03 3c  	   lui        v1,0xff
        001018c8 30 00 04 3c  	   lui        a0,0x30
        001018cc 2d 28 40 00  	   move       a1,v0
        001018d0 ce 14 00 10  	   beq        zero,zero,LAB_00106c0c
        001018d4 18 f7 84 24  	   _addiu     a0,a0,-0x8e8
                             LAB_001018d8                                    XREF[1]:     002ec880(*)  
        001018d8 3c 07 06 0c  	   jal        MemoryAllocate                                   void * MemoryAllocate(uint memor
        001018dc 0c 00 04 24  	   _li        a0,0xc
        001018e0 ff 00 03 3c  	   lui        v1,0xff
        001018e4 30 00 04 3c  	   lui        a0,0x30
        001018e8 2d 28 40 00  	   move       a1,v0
        001018ec c7 14 00 10  	   beq        zero,zero,LAB_00106c0c
        001018f0 d8 f6 84 24  	   _addiu     a0,a0,-0x928
                             LAB_001018f4                                    XREF[1]:     002ec870(*)  
        001018f4 3c 07 06 0c  	   jal        MemoryAllocate                                   void * MemoryAllocate(uint memor
        001018f8 10 00 04 24  	   _li        a0,0x10
        001018fc 30 00 04 3c  	   lui        a0,0x30
        00101900 2d 80 40 00  	   move       s0,v0
        00101904 98 f7 84 24  	   addiu      a0,a0,-0x868
        00101908 ff 00 03 3c  	   lui        v1,0xff
        0010190c ff ff 63 34  	   ori        v1,v1,0xffff
        00101910 08 00 04 ae  	   sw         a0=>DAT_002ff798,0x8(s0)
        00101914 00 00 03 ae  	   sw         v1,0x0(s0)
        00101918 0c 00 04 26  	   addiu      a0,s0,0xc
        0010191c 0e 14 00 10  	   beq        zero,zero,LAB_00106958
        00101920 04 00 00 ae  	   _sw        zero,0x4(s0)
                             LAB_00101924                                    XREF[1]:     002ec874(*)  
        00101924 3c 07 06 0c  	   jal        MemoryAllocate                                   void * MemoryAllocate(uint memor
        00101928 10 00 04 24  	   _li        a0,0x10
        0010192c 30 00 04 3c  	   lui        a0,0x30
        00101930 2d 80 40 00  	   move       s0,v0
        00101934 58 f7 84 24  	   addiu      a0,a0,-0x8a8
        00101938 ff 00 03 3c  	   lui        v1,0xff
        0010193c ff ff 63 34  	   ori        v1,v1,0xffff
        00101940 08 00 04 ae  	   sw         a0=>DAT_002ff758,0x8(s0)
        00101944 00 00 03 ae  	   sw         v1,0x0(s0)
        00101948 0c 00 04 26  	   addiu      a0,s0,0xc
        0010194c 02 14 00 10  	   beq        zero,zero,LAB_00106958
        00101950 04 00 00 ae  	   _sw        zero,0x4(s0)
                             LAB_00101954                                    XREF[1]:     002ec684(*)  
        00101954 3c 07 06 0c  	   jal        MemoryAllocate                                   void * MemoryAllocate(uint memor
        00101958 10 00 04 24  	   _li        a0,0x10
        0010195c 2d 20 40 00  	   move       a0,v0
        00101960 f8 ff 07 24  	   li         a3,-0x8
        00101964 0c 00 83 8c  	   lw         v1,0xc(a0)
        00101968 ff 00 02 3c  	   lui        v0,0xff
        0010196c ff ff 42 34  	   ori        v0,v0,0xffff
        00101970 30 00 05 3c  	   lui        a1,0x30
        00101974 c7 ff 06 24  	   li         a2,-0x39
        00101978 24 18 67 00  	   and        v1,v1,a3
        0010197c 58 f6 a5 24  	   addiu      a1,a1,-0x9a8
        00101980 24 18 66 00  	   and        v1,v1,a2
        00101984 00 00 82 ac  	   sw         v0,0x0(a0)
        00101988 2d 10 80 00  	   move       v0,a0
        0010198c 61 03 00 10  	   beq        zero,zero,LAB_00102714
        00101990 08 00 85 ac  	   _sw        a1=>DAT_002ff658,0x8(a0)
                             LAB_00101994                                    XREF[1]:     002ec718(*)  
        00101994 3c 07 06 0c  	   jal        MemoryAllocate                                   void * MemoryAllocate(uint memor
        00101998 10 00 04 24  	   _li        a0,0x10
        0010199c ff 00 04 3c  	   lui        a0,0xff
        001019a0 30 00 05 3c  	   lui        a1,0x30
        001019a4 2d 18 40 00  	   move       v1,v0
        001019a8 ff 00 07 24  	   li         a3,0xff
        001019ac 18 f5 a5 24  	   addiu      a1,a1,-0xae8
        001019b0 ff ff 84 34  	   ori        a0,a0,0xffff
        001019b4 f0 00 06 24  	   li         a2,0xf0
        001019b8 00 00 64 ac  	   sw         a0,0x0(v1)
        001019bc 08 00 65 ac  	   sw         a1=>DAT_002ff518,0x8(v1)
        001019c0 0d 00 67 a0  	   sb         a3,0xd(v1)
        001019c4 0e 00 66 a0  	   sb         a2,0xe(v1)
        001019c8 04 00 60 ac  	   sw         zero,0x4(v1)
        001019cc 95 14 00 10  	   beq        zero,zero,LAB_00106c24
        001019d0 0c 00 67 a0  	   _sb        a3,0xc(v1)
                             LAB_001019d4                                    XREF[2]:     002ec534(*), 002ecda4(*)  
        001019d4 3c 07 06 0c  	   jal        MemoryAllocate                                   void * MemoryAllocate(uint memor
        001019d8 80 00 04 24  	   _li        a0,0x80
        001019dc 30 00 04 3c  	   lui        a0,0x30
        001019e0 2d 80 40 00  	   move       s0,v0
        001019e4 58 e3 84 24  	   addiu      a0,a0,-0x1ca8
        001019e8 ff 00 03 3c  	   lui        v1,0xff
        001019ec ff ff 63 34  	   ori        v1,v1,0xffff
        001019f0 08 00 04 ae  	   sw         a0=>DAT_002fe358,0x8(s0)
        001019f4 00 00 03 ae  	   sw         v1,0x0(s0)
        001019f8 10 00 04 26  	   addiu      a0,s0,0x10
        001019fc 18 d4 08 0c  	   jal        FUN_00235060                                     undefined8 FUN_00235060(undefine
        00101a00 04 00 00 ae  	   _sw        zero,0x4(s0)
        00101a04 87 14 00 10  	   beq        zero,zero,LAB_00106c24
        00101a08 2d 10 00 02  	   _move      v0,s0
                             LAB_00101a0c                                    XREF[2]:     002ec538(*), 002ecda8(*)  
        00101a0c 3c 07 06 0c  	   jal        MemoryAllocate                                   void * MemoryAllocate(uint memor
        00101a10 0c 00 04 24  	   _li        a0,0xc
        00101a14 ff 00 03 3c  	   lui        v1,0xff
        00101a18 30 00 04 3c  	   lui        a0,0x30
        00101a1c 2d 28 40 00  	   move       a1,v0
        00101a20 7a 14 00 10  	   beq        zero,zero,LAB_00106c0c
        00101a24 18 e3 84 24  	   _addiu     a0,a0,-0x1ce8
                             LAB_00101a28                                    XREF[1]:     002ecf44(*)  
        00101a28 3c 07 06 0c  	   jal        MemoryAllocate                                   void * MemoryAllocate(uint memor
        00101a2c 10 00 04 24  	   _li        a0,0x10
        00101a30 2d 18 40 00  	   move       v1,v0
        00101a34 ff 00 05 3c  	   lui        a1,0xff
        00101a38 ff 00 02 24  	   li         v0,0xff
        00101a3c ff fe 06 24  	   li         a2,-0x101
        00101a40 0c 00 62 a0  	   sb         v0,0xc(v1)
        00101a44 ff ff a5 34  	   ori        a1,a1,0xffff
        00101a48 2f 00 02 3c  	   lui        v0,0x2f
        00101a4c 00 00 65 ac  	   sw         a1,0x0(v1)
        00101a50 0c 00 64 8c  	   lw         a0,0xc(v1)
        00101a54 48 e7 42 24  	   addiu      v0,v0,-0x18b8
        00101a58 08 00 62 ac  	   sw         v0=>DAT_002ee748,0x8(v1)
        00101a5c 24 20 86 00  	   and        a0,a0,a2
        00101a60 5b 13 00 10  	   beq        zero,zero,LAB_001067d0
        00101a64 2d 10 60 00  	   _move      v0,v1
                             LAB_00101a68                                    XREF[1]:     002ec744(*)  
        00101a68 3c 07 06 0c  	   jal        MemoryAllocate                                   void * MemoryAllocate(uint memor
        00101a6c 0c 00 04 24  	   _li        a0,0xc
        00101a70 ff 00 03 3c  	   lui        v1,0xff
        00101a74 30 00 04 3c  	   lui        a0,0x30
        00101a78 2d 28 40 00  	   move       a1,v0
        00101a7c 63 14 00 10  	   beq        zero,zero,LAB_00106c0c
        00101a80 d8 f4 84 24  	   _addiu     a0,a0,-0xb28
                             LAB_00101a84                                    XREF[1]:     002ec6f8(*)  
        00101a84 3c 07 06 0c  	   jal        MemoryAllocate                                   void * MemoryAllocate(uint memor
        00101a88 0c 00 04 24  	   _li        a0,0xc
        00101a8c ff 00 03 3c  	   lui        v1,0xff
        00101a90 30 00 04 3c  	   lui        a0,0x30
        00101a94 2d 28 40 00  	   move       a1,v0
        00101a98 5c 14 00 10  	   beq        zero,zero,LAB_00106c0c
        00101a9c 18 e1 84 24  	   _addiu     a0,a0,-0x1ee8
                             LAB_00101aa0                                    XREF[1]:     002ec6fc(*)  
        00101aa0 3c 07 06 0c  	   jal        MemoryAllocate                                   void * MemoryAllocate(uint memor
        00101aa4 0c 00 04 24  	   _li        a0,0xc
        00101aa8 ff 00 03 3c  	   lui        v1,0xff
        00101aac 30 00 04 3c  	   lui        a0,0x30
        00101ab0 2d 28 40 00  	   move       a1,v0
        00101ab4 55 14 00 10  	   beq        zero,zero,LAB_00106c0c
        00101ab8 d8 e0 84 24  	   _addiu     a0,a0,-0x1f28
                             LAB_00101abc                                    XREF[1]:     002ec700(*)  
        00101abc 3c 07 06 0c  	   jal        MemoryAllocate                                   void * MemoryAllocate(uint memor
        00101ac0 0c 00 04 24  	   _li        a0,0xc
        00101ac4 ff 00 03 3c  	   lui        v1,0xff
        00101ac8 30 00 04 3c  	   lui        a0,0x30
        00101acc 2d 28 40 00  	   move       a1,v0
        00101ad0 4e 14 00 10  	   beq        zero,zero,LAB_00106c0c
        00101ad4 98 e0 84 24  	   _addiu     a0,a0,-0x1f68
                             LAB_00101ad8                                    XREF[1]:     002ec53c(*)  
        00101ad8 3c 07 06 0c  	   jal        MemoryAllocate                                   void * MemoryAllocate(uint memor
        00101adc 20 00 04 24  	   _li        a0,0x20
        00101ae0 2d 20 40 00  	   move       a0,v0
        00101ae4 30 00 03 3c  	   lui        v1,0x30
        00101ae8 ff 00 02 24  	   li         v0,0xff
        00101aec d8 e9 63 24  	   addiu      v1,v1,-0x1628
        00101af0 0d 00 82 a0  	   sb         v0,0xd(a0)
        00101af4 f0 ff 06 34  	   ori        a2,zero,0xfff0
        00101af8 38 34 06 00  	   dsll       a2,a2,0x10
        00101afc ff ff c6 34  	   ori        a2,a2,0xffff
        00101b00 38 34 06 00  	   dsll       a2,a2,0x10
        00101b04 ff ff c6 34  	   ori        a2,a2,0xffff
        00101b08 38 34 06 00  	   dsll       a2,a2,0x10
        00101b0c ff ff c6 34  	   ori        a2,a2,0xffff
        00101b10 0c 00 82 a0  	   sb         v0,0xc(a0)
        00101b14 ef ff 07 34  	   ori        a3,zero,0xffef
        00101b18 38 3c 07 00  	   dsll       a3,a3,0x10
        00101b1c ff ff e7 34  	   ori        a3,a3,0xffff
        00101b20 38 3c 07 00  	   dsll       a3,a3,0x10
        00101b24 ff ff e7 34  	   ori        a3,a3,0xffff
        00101b28 38 3c 07 00  	   dsll       a3,a3,0x10
        00101b2c ff ff e7 34  	   ori        a3,a3,0xffff
        00101b30 08 00 83 ac  	   sw         v1=>DAT_002fe9d8,0x8(a0)
        00101b34 df ff 08 34  	   ori        t0,zero,0xffdf
        00101b38 38 44 08 00  	   dsll       t0,t0,0x10
        00101b3c ff ff 08 35  	   ori        t0,t0,0xffff
        00101b40 38 44 08 00  	   dsll       t0,t0,0x10
        00101b44 ff ff 08 35  	   ori        t0,t0,0xffff
        00101b48 38 44 08 00  	   dsll       t0,t0,0x10
        00101b4c ff ff 08 35  	   ori        t0,t0,0xffff
        00101b50 bf ff 09 34  	   ori        t1,zero,0xffbf
        00101b54 38 4c 09 00  	   dsll       t1,t1,0x10
        00101b58 ff ff 29 35  	   ori        t1,t1,0xffff
        00101b5c 38 4c 09 00  	   dsll       t1,t1,0x10
        00101b60 ff ff 29 35  	   ori        t1,t1,0xffff
        00101b64 38 4c 09 00  	   dsll       t1,t1,0x10
        00101b68 ff ff 29 35  	   ori        t1,t1,0xffff
        00101b6c 7f ff 0a 34  	   ori        t2,zero,0xff7f
        00101b70 38 54 0a 00  	   dsll       t2,t2,0x10
        00101b74 ff ff 4a 35  	   ori        t2,t2,0xffff
        00101b78 38 54 0a 00  	   dsll       t2,t2,0x10
        00101b7c ff ff 4a 35  	   ori        t2,t2,0xffff
        00101b80 38 54 0a 00  	   dsll       t2,t2,0x10
        00101b84 ff ff 4a 35  	   ori        t2,t2,0xffff
        00101b88 08 00 83 dc  	   ld         v1,0x8(a0)
        00101b8c ff 00 02 3c  	   lui        v0,0xff
        00101b90 ff ff 42 34  	   ori        v0,v0,0xffff
        00101b94 ff fe 05 34  	   ori        a1,zero,0xfeff
        00101b98 38 2c 05 00  	   dsll       a1,a1,0x10
        00101b9c ff ff a5 34  	   ori        a1,a1,0xffff
        00101ba0 38 2c 05 00  	   dsll       a1,a1,0x10
        00101ba4 ff ff a5 34  	   ori        a1,a1,0xffff
        00101ba8 38 2c 05 00  	   dsll       a1,a1,0x10
        00101bac ff ff a5 34  	   ori        a1,a1,0xffff
        00101bb0 24 18 66 00  	   and        v1,v1,a2
        00101bb4 00 00 82 ac  	   sw         v0,0x0(a0)
        00101bb8 24 18 67 00  	   and        v1,v1,a3
        00101bbc 2d 10 80 00  	   move       v0,a0
        00101bc0 24 18 68 00  	   and        v1,v1,t0
        00101bc4 04 00 80 ac  	   sw         zero,0x4(a0)
        00101bc8 24 18 69 00  	   and        v1,v1,t1
        00101bcc 24 18 6a 00  	   and        v1,v1,t2
        00101bd0 24 18 65 00  	   and        v1,v1,a1
        00101bd4 13 14 00 10  	   beq        zero,zero,LAB_00106c24
        00101bd8 08 00 83 fc  	   _sd        v1,0x8(a0)
                             LAB_00101bdc                                    XREF[1]:     002ec7f4(*)  
        00101bdc 3c 07 06 0c  	   jal        MemoryAllocate                                   void * MemoryAllocate(uint memor
        00101be0 30 00 04 24  	   _li        a0,0x30
        00101be4 30 00 03 3c  	   lui        v1,0x30
        00101be8 2d 20 40 00  	   move       a0,v0
        00101bec ff 00 05 24  	   li         a1,0xff
        00101bf0 98 e9 63 24  	   addiu      v1,v1,-0x1668
        00101bf4 08 00 83 ac  	   sw         v1=>DAT_002fe998,0x8(a0)
        00101bf8 f0 ff 06 34  	   ori        a2,zero,0xfff0
        00101bfc 38 34 06 00  	   dsll       a2,a2,0x10
        00101c00 ff ff c6 34  	   ori        a2,a2,0xffff
        00101c04 38 34 06 00  	   dsll       a2,a2,0x10
        00101c08 ff ff c6 34  	   ori        a2,a2,0xffff
        00101c0c 38 34 06 00  	   dsll       a2,a2,0x10
        00101c10 ff ff c6 34  	   ori        a2,a2,0xffff
        00101c14 0c 00 85 a0  	   sb         a1,0xc(a0)
        00101c18 ef ff 07 34  	   ori        a3,zero,0xffef
        00101c1c 38 3c 07 00  	   dsll       a3,a3,0x10
        00101c20 ff ff e7 34  	   ori        a3,a3,0xffff
        00101c24 38 3c 07 00  	   dsll       a3,a3,0x10
        00101c28 ff ff e7 34  	   ori        a3,a3,0xffff
        00101c2c 38 3c 07 00  	   dsll       a3,a3,0x10
        00101c30 ff ff e7 34  	   ori        a3,a3,0xffff
        00101c34 0d 00 85 a0  	   sb         a1,0xd(a0)
        00101c38 df ff 08 34  	   ori        t0,zero,0xffdf
        00101c3c 38 44 08 00  	   dsll       t0,t0,0x10
        00101c40 ff ff 08 35  	   ori        t0,t0,0xffff
        00101c44 38 44 08 00  	   dsll       t0,t0,0x10
        00101c48 ff ff 08 35  	   ori        t0,t0,0xffff
        00101c4c 38 44 08 00  	   dsll       t0,t0,0x10
        00101c50 ff ff 08 35  	   ori        t0,t0,0xffff
        00101c54 bf ff 09 34  	   ori        t1,zero,0xffbf
        00101c58 38 4c 09 00  	   dsll       t1,t1,0x10
        00101c5c ff ff 29 35  	   ori        t1,t1,0xffff
        00101c60 38 4c 09 00  	   dsll       t1,t1,0x10
        00101c64 ff ff 29 35  	   ori        t1,t1,0xffff
        00101c68 38 4c 09 00  	   dsll       t1,t1,0x10
        00101c6c ff ff 29 35  	   ori        t1,t1,0xffff
        00101c70 7f ff 0a 34  	   ori        t2,zero,0xff7f
        00101c74 38 54 0a 00  	   dsll       t2,t2,0x10
        00101c78 ff ff 4a 35  	   ori        t2,t2,0xffff
        00101c7c 38 54 0a 00  	   dsll       t2,t2,0x10
        00101c80 ff ff 4a 35  	   ori        t2,t2,0xffff
        00101c84 38 54 0a 00  	   dsll       t2,t2,0x10
        00101c88 ff ff 4a 35  	   ori        t2,t2,0xffff
        00101c8c 08 00 83 dc  	   ld         v1,0x8(a0)
        00101c90 ff 00 02 3c  	   lui        v0,0xff
        00101c94 ff ff 42 34  	   ori        v0,v0,0xffff
        00101c98 10 00 85 a0  	   sb         a1,0x10(a0)
        00101c9c 24 18 66 00  	   and        v1,v1,a2
        00101ca0 00 00 82 ac  	   sw         v0,0x0(a0)
        00101ca4 24 18 67 00  	   and        v1,v1,a3
        00101ca8 2d 10 80 00  	   move       v0,a0
        00101cac 24 18 68 00  	   and        v1,v1,t0
        00101cb0 04 00 80 ac  	   sw         zero,0x4(a0)
        00101cb4 1f 05 00 10  	   beq        zero,zero,LAB_00103134
        00101cb8 24 18 69 00  	   _and       v1,v1,t1
                             LAB_00101cbc                                    XREF[1]:     002ec5a4(*)  
        00101cbc 3c 07 06 0c  	   jal        MemoryAllocate                                   void * MemoryAllocate(uint memor
        00101cc0 20 00 04 24  	   _li        a0,0x20
        00101cc4 ff 00 03 3c  	   lui        v1,0xff
        00101cc8 30 00 04 3c  	   lui        a0,0x30
        00101ccc 2d 28 40 00  	   move       a1,v0
        00101cd0 ce 13 00 10  	   beq        zero,zero,LAB_00106c0c
        00101cd4 58 e9 84 24  	   _addiu     a0,a0,-0x16a8
                             LAB_00101cd8                                    XREF[1]:     002ec7f8(*)  
        00101cd8 3c 07 06 0c  	   jal        MemoryAllocate                                   void * MemoryAllocate(uint memor
        00101cdc 30 00 04 24  	   _li        a0,0x30
        00101ce0 ff 00 04 3c  	   lui        a0,0xff
        00101ce4 30 00 05 3c  	   lui        a1,0x30
        00101ce8 2d 18 40 00  	   move       v1,v0
        00101cec ff 00 06 24  	   li         a2,0xff
        00101cf0 18 e9 a5 24  	   addiu      a1,a1,-0x16e8
        00101cf4 ff ff 84 34  	   ori        a0,a0,0xffff
        00101cf8 00 00 64 ac  	   sw         a0,0x0(v1)
        00101cfc 08 00 65 ac  	   sw         a1=>DAT_002fe918,0x8(v1)
        00101d00 11 00 66 a0  	   sb         a2,0x11(v1)
        00101d04 04 00 60 ac  	   sw         zero,0x4(v1)
        00101d08 c6 13 00 10  	   beq        zero,zero,LAB_00106c24
        00101d0c 10 00 66 a0  	   _sb        a2,0x10(v1)
                             LAB_00101d10                                    XREF[1]:     002ec624(*)  
        00101d10 3c 07 06 0c  	   jal        MemoryAllocate                                   void * MemoryAllocate(uint memor
        00101d14 0c 00 04 24  	   _li        a0,0xc
        00101d18 ff 00 03 3c  	   lui        v1,0xff
        00101d1c 30 00 04 3c  	   lui        a0,0x30
        00101d20 2d 28 40 00  	   move       a1,v0
        00101d24 b9 13 00 10  	   beq        zero,zero,LAB_00106c0c
        00101d28 18 ea 84 24  	   _addiu     a0,a0,-0x15e8
                             LAB_00101d2c                                    XREF[1]:     002ec540(*)  
        00101d2c 3c 07 06 0c  	   jal        MemoryAllocate                                   void * MemoryAllocate(uint memor
        00101d30 10 00 04 24  	   _li        a0,0x10
        00101d34 2d 20 40 00  	   move       a0,v0
        00101d38 ff fe 08 3c  	   lui        t0,0xfeff
        00101d3c ff 00 02 24  	   li         v0,0xff
        00101d40 ff ff 08 35  	   ori        t0,t0,0xffff
        00101d44 0e 00 82 a0  	   sb         v0,0xe(a0)
        00101d48 ff fd 05 3c  	   lui        a1,0xfdff
        00101d4c 0c 00 82 a0  	   sb         v0,0xc(a0)
        00101d50 ff ff a5 34  	   ori        a1,a1,0xffff
        00101d54 0d 00 82 a0  	   sb         v0,0xd(a0)
        00101d58 00 08 09 3c  	   lui        t1,0x800
        00101d5c ff fb 02 3c  	   lui        v0,0xfbff
        00101d60 ff ef 06 3c  	   lui        a2,0xefff
        00101d64 0c 00 83 8c  	   lw         v1,0xc(a0)
        00101d68 ff ff 42 34  	   ori        v0,v0,0xffff
        00101d6c ff 00 07 3c  	   lui        a3,0xff
        00101d70 ff ff c6 34  	   ori        a2,a2,0xffff
        00101d74 24 18 68 00  	   and        v1,v1,t0
        00101d78 ff ff e7 34  	   ori        a3,a3,0xffff
        00101d7c 24 18 65 00  	   and        v1,v1,a1
        00101d80 30 00 08 3c  	   lui        t0,0x30
        00101d84 24 18 62 00  	   and        v1,v1,v0
        00101d88 18 e6 08 25  	   addiu      t0,t0,-0x19e8
        00101d8c 25 18 69 00  	   or         v1,v1,t1
        00101d90 00 00 87 ac  	   sw         a3,0x0(a0)
        00101d94 24 18 66 00  	   and        v1,v1,a2
        00101d98 2d 10 80 00  	   move       v0,a0
        00101d9c 5d 02 00 10  	   beq        zero,zero,LAB_00102714
        00101da0 08 00 88 ac  	   _sw        t0=>DAT_002fe618,0x8(a0)
                             LAB_00101da4                                    XREF[1]:     002ec544(*)  
        00101da4 3c 07 06 0c  	   jal        MemoryAllocate                                   void * MemoryAllocate(uint memor
        00101da8 0c 00 04 24  	   _li        a0,0xc
        00101dac ff 00 03 3c  	   lui        v1,0xff
        00101db0 30 00 04 3c  	   lui        a0,0x30
        00101db4 2d 28 40 00  	   move       a1,v0
        00101db8 94 13 00 10  	   beq        zero,zero,LAB_00106c0c
        00101dbc d8 e5 84 24  	   _addiu     a0,a0,-0x1a28
                             LAB_00101dc0                                    XREF[1]:     002ec77c(*)  
        00101dc0 3c 07 06 0c  	   jal        MemoryAllocate                                   void * MemoryAllocate(uint memor
        00101dc4 0c 00 04 24  	   _li        a0,0xc
        00101dc8 ff 00 03 3c  	   lui        v1,0xff
        00101dcc 30 00 04 3c  	   lui        a0,0x30
        00101dd0 2d 28 40 00  	   move       a1,v0
        00101dd4 8d 13 00 10  	   beq        zero,zero,LAB_00106c0c
        00101dd8 98 e5 84 24  	   _addiu     a0,a0,-0x1a68
                             LAB_00101ddc                                    XREF[1]:     002ec720(*)  
        00101ddc 3c 07 06 0c  	   jal        MemoryAllocate                                   void * MemoryAllocate(uint memor
        00101de0 10 00 04 24  	   _li        a0,0x10
        00101de4 2d 18 40 00  	   move       v1,v0
        00101de8 fe ff 06 3c  	   lui        a2,0xfffe
        00101dec 0c 00 60 a4  	   sh         zero,0xc(v1)
        00101df0 30 00 02 3c  	   lui        v0,0x30
        00101df4 d8 f8 42 24  	   addiu      v0,v0,-0x728
        00101df8 ff 00 05 3c  	   lui        a1,0xff
        00101dfc 0c 00 64 8c  	   lw         a0,0xc(v1)
        00101e00 ff ff c6 34  	   ori        a2,a2,0xffff
        00101e04 ff ff a5 34  	   ori        a1,a1,0xffff
        00101e08 08 00 62 ac  	   sw         v0=>DAT_002ff8d8,0x8(v1)
        00101e0c 24 20 86 00  	   and        a0,a0,a2
        00101e10 00 00 65 ac  	   sw         a1,0x0(v1)
        00101e14 0c 00 64 ac  	   sw         a0,0xc(v1)
        00101e18 2d 10 60 00  	   move       v0,v1
        00101e1c 81 13 00 10  	   beq        zero,zero,LAB_00106c24
        00101e20 04 00 60 ac  	   _sw        zero,0x4(v1)
                             LAB_00101e24                                    XREF[1]:     002ec7dc(*)  
        00101e24 3c 07 06 0c  	   jal        MemoryAllocate                                   void * MemoryAllocate(uint memor
        00101e28 14 00 04 24  	   _li        a0,0x14
        00101e2c 2d 20 40 00  	   move       a0,v0
        00101e30 fe ff 05 3c  	   lui        a1,0xfffe
        00101e34 10 00 80 a4  	   sh         zero,0x10(a0)
        00101e38 ff ff a5 34  	   ori        a1,a1,0xffff
        00101e3c fd ff 02 3c  	   lui        v0,0xfffd
        00101e40 04 00 08 3c  	   lui        t0,0x4
        00101e44 10 00 83 8c  	   lw         v1,0x10(a0)
        00101e48 ff ff 42 34  	   ori        v0,v0,0xffff
        00101e4c ff 00 07 3c  	   lui        a3,0xff
        00101e50 30 00 06 3c  	   lui        a2,0x30
        00101e54 24 18 65 00  	   and        v1,v1,a1
        00101e58 18 f4 c6 24  	   addiu      a2,a2,-0xbe8
        00101e5c 24 18 62 00  	   and        v1,v1,v0
        00101e60 ff ff e7 34  	   ori        a3,a3,0xffff
        00101e64 25 18 68 00  	   or         v1,v1,t0
        00101e68 ff 00 05 24  	   li         a1,0xff
        00101e6c ff 00 08 24  	   li         t0,0xff
        00101e70 00 00 87 ac  	   sw         a3,0x0(a0)
        00101e74 08 00 86 ac  	   sw         a2=>DAT_002ff418,0x8(a0)
        00101e78 2d 10 80 00  	   move       v0,a0
        00101e7c 0c 00 85 a0  	   sb         a1,0xc(a0)
        00101e80 69 01 00 10  	   beq        zero,zero,LAB_00102428
        00101e84 0e 00 88 a4  	   _sh        t0,0xe(a0)
                             LAB_00101e88                                    XREF[1]:     002ec7e0(*)  
        00101e88 3c 07 06 0c  	   jal        MemoryAllocate                                   void * MemoryAllocate(uint memor
        00101e8c 10 00 04 24  	   _li        a0,0x10
        00101e90 2d 18 40 00  	   move       v1,v0
        00101e94 ff fe 07 24  	   li         a3,-0x101
        00101e98 ff 00 02 24  	   li         v0,0xff
        00101e9c ff fd 06 24  	   li         a2,-0x201
        00101ea0 0c 00 62 a0  	   sb         v0,0xc(v1)
        00101ea4 ff 00 04 3c  	   lui        a0,0xff
        00101ea8 30 00 05 3c  	   lui        a1,0x30
        00101eac ff ff 84 34  	   ori        a0,a0,0xffff
        00101eb0 0c 00 62 8c  	   lw         v0,0xc(v1)
        00101eb4 d8 f3 a5 24  	   addiu      a1,a1,-0xc28
        00101eb8 00 00 64 ac  	   sw         a0,0x0(v1)
        00101ebc 24 10 47 00  	   and        v0,v0,a3
        00101ec0 08 00 65 ac  	   sw         a1=>DAT_002ff3d8,0x8(v1)
        00101ec4 24 10 46 00  	   and        v0,v0,a2
        00101ec8 bf 0b 00 10  	   beq        zero,zero,LAB_00104dc8
        00101ecc 04 00 60 ac  	   _sw        zero,0x4(v1)
                             LAB_00101ed0                                    XREF[1]:     002ec80c(*)  
        00101ed0 3c 07 06 0c  	   jal        MemoryAllocate                                   void * MemoryAllocate(uint memor
        00101ed4 10 00 04 24  	   _li        a0,0x10
        00101ed8 ff 00 04 3c  	   lui        a0,0xff
        00101edc 30 00 05 3c  	   lui        a1,0x30
        00101ee0 2d 18 40 00  	   move       v1,v0
        00101ee4 b5 12 00 10  	   beq        zero,zero,LAB_001069bc
        00101ee8 98 f3 a5 24  	   _addiu     a1,a1,-0xc68
                             LAB_00101eec                                    XREF[1]:     002ec810(*)  
        00101eec 3c 07 06 0c  	   jal        MemoryAllocate                                   void * MemoryAllocate(uint memor
        00101ef0 10 00 04 24  	   _li        a0,0x10
        00101ef4 2d 18 40 00  	   move       v1,v0
        00101ef8 ff 00 05 3c  	   lui        a1,0xff
        00101efc ff 00 02 24  	   li         v0,0xff
        00101f00 ff fe 06 24  	   li         a2,-0x101
        00101f04 0c 00 62 a0  	   sb         v0,0xc(v1)
        00101f08 ff ff a5 34  	   ori        a1,a1,0xffff
        00101f0c 30 00 02 3c  	   lui        v0,0x30
        00101f10 00 00 65 ac  	   sw         a1,0x0(v1)
        00101f14 0c 00 64 8c  	   lw         a0,0xc(v1)
        00101f18 58 f3 42 24  	   addiu      v0,v0,-0xca8
        00101f1c 08 00 62 ac  	   sw         v0=>DAT_002ff358,0x8(v1)
        00101f20 24 20 86 00  	   and        a0,a0,a2
        00101f24 2a 12 00 10  	   beq        zero,zero,LAB_001067d0
        00101f28 2d 10 60 00  	   _move      v0,v1
                             LAB_00101f2c                                    XREF[1]:     002ec848(*)  
        00101f2c 3c 07 06 0c  	   jal        MemoryAllocate                                   void * MemoryAllocate(uint memor
        00101f30 18 00 04 24  	   _li        a0,0x18
        00101f34 80 3f 01 3c  	   lui        at,0x3f80
        00101f38 00 00 81 44  	   mtc1       at,f0
        00101f3c ff 00 04 3c  	   lui        a0,0xff
        00101f40 30 00 05 3c  	   lui        a1,0x30
        00101f44 2d 18 40 00  	   move       v1,v0
        00101f48 58 f2 a5 24  	   addiu      a1,a1,-0xda8
        00101f4c ff ff 84 34  	   ori        a0,a0,0xffff
        00101f50 00 00 64 ac  	   sw         a0,0x0(v1)
        00101f54 08 00 65 ac  	   sw         a1=>DAT_002ff258,0x8(v1)
        00101f58 14 00 60 e4  	   swc1       f0,0x14(v1)
        00101f5c 04 00 60 ac  	   sw         zero,0x4(v1)
        00101f60 0c 00 60 e4  	   swc1       f0,0xc(v1)
        00101f64 2f 13 00 10  	   beq        zero,zero,LAB_00106c24
        00101f68 10 00 60 e4  	   _swc1      f0,0x10(v1)
                             LAB_00101f6c                                    XREF[2]:     002ec62c(*), 002ecd7c(*)  
        00101f6c 3c 07 06 0c  	   jal        MemoryAllocate                                   void * MemoryAllocate(uint memor
        00101f70 0c 00 04 24  	   _li        a0,0xc
        00101f74 ff 00 03 3c  	   lui        v1,0xff
        00101f78 30 00 04 3c  	   lui        a0,0x30
        00101f7c 2d 28 40 00  	   move       a1,v0
        00101f80 22 13 00 10  	   beq        zero,zero,LAB_00106c0c
        00101f84 d8 f5 84 24  	   _addiu     a0,a0,-0xa28
                             LAB_00101f88                                    XREF[1]:     002ec54c(*)  
        00101f88 3c 07 06 0c  	   jal        MemoryAllocate                                   void * MemoryAllocate(uint memor
        00101f8c 0c 00 04 24  	   _li        a0,0xc
        00101f90 ff 00 03 3c  	   lui        v1,0xff
        00101f94 30 00 04 3c  	   lui        a0,0x30
        00101f98 2d 28 40 00  	   move       a1,v0
        00101f9c 1b 13 00 10  	   beq        zero,zero,LAB_00106c0c
        00101fa0 98 f5 84 24  	   _addiu     a0,a0,-0xa68
                             LAB_00101fa4                                    XREF[1]:     002ec5d8(*)  
        00101fa4 3c 07 06 0c  	   jal        MemoryAllocate                                   void * MemoryAllocate(uint memor
        00101fa8 10 00 04 24  	   _li        a0,0x10
        00101fac ff 00 04 3c  	   lui        a0,0xff
        00101fb0 30 00 05 3c  	   lui        a1,0x30
        00101fb4 2d 18 40 00  	   move       v1,v0
        00101fb8 80 12 00 10  	   beq        zero,zero,LAB_001069bc
        00101fbc d8 f7 a5 24  	   _addiu     a1,a1,-0x828
                             LAB_00101fc0                                    XREF[1]:     002ec5ac(*)  
        00101fc0 3c 07 06 0c  	   jal        MemoryAllocate                                   void * MemoryAllocate(uint memor
        00101fc4 10 00 04 24  	   _li        a0,0x10
        00101fc8 ff 00 03 3c  	   lui        v1,0xff
        00101fcc 30 00 04 3c  	   lui        a0,0x30
        00101fd0 2d 28 40 00  	   move       a1,v0
        00101fd4 f0 0e 00 10  	   beq        zero,zero,LAB_00105b98
        00101fd8 98 f6 84 24  	   _addiu     a0,a0,-0x968
                             LAB_00101fdc                                    XREF[1]:     002ec550(*)  
        00101fdc 3c 07 06 0c  	   jal        MemoryAllocate                                   void * MemoryAllocate(uint memor
        00101fe0 30 00 04 24  	   _li        a0,0x30
        00101fe4 2d 20 40 00  	   move       a0,v0
        00101fe8 50 95 08 0c  	   jal        FUN_00225540                                     undefined8 FUN_00225540(undefine
        00101fec 2d 28 00 00  	   _move      a1,zero
        00101ff0 0d 13 00 10  	   beq        zero,zero,LAB_00106c28
        00101ff4 30 00 b0 df  	   _ld        s0,0x30(sp)
                             LAB_00101ff8                                    XREF[1]:     002ec6f0(*)  
        00101ff8 3c 07 06 0c  	   jal        MemoryAllocate                                   void * MemoryAllocate(uint memor
        00101ffc 30 00 04 24  	   _li        a0,0x30
        00102000 2d 20 40 00  	   move       a0,v0
        00102004 50 95 08 0c  	   jal        FUN_00225540                                     undefined8 FUN_00225540(undefine
        00102008 01 00 05 24  	   _li        a1,0x1
        0010200c 06 13 00 10  	   beq        zero,zero,LAB_00106c28
        00102010 30 00 b0 df  	   _ld        s0,0x30(sp)
                             LAB_00102014                                    XREF[1]:     002ec6ec(*)  
        00102014 3c 07 06 0c  	   jal        MemoryAllocate                                   void * MemoryAllocate(uint memor
        00102018 0c 00 04 24  	   _li        a0,0xc
        0010201c ff 00 03 3c  	   lui        v1,0xff
        00102020 30 00 04 3c  	   lui        a0,0x30
        00102024 2d 28 40 00  	   move       a1,v0
        00102028 f8 12 00 10  	   beq        zero,zero,LAB_00106c0c
        0010202c d8 d8 84 24  	   _addiu     a0,a0,-0x2728
                             LAB_00102030                                    XREF[1]:     002ec7a4(*)  
        00102030 3c 07 06 0c  	   jal        MemoryAllocate                                   void * MemoryAllocate(uint memor
        00102034 10 00 04 24  	   _li        a0,0x10
        00102038 2d 18 40 00  	   move       v1,v0
        0010203c ff fe 07 24  	   li         a3,-0x101
        00102040 ff 00 02 24  	   li         v0,0xff
        00102044 ff fd 08 24  	   li         t0,-0x201
        00102048 0c 00 62 a0  	   sb         v0,0xc(v1)
        0010204c ff fb 06 24  	   li         a2,-0x401
        00102050 ff 00 04 3c  	   lui        a0,0xff
        00102054 30 00 05 3c  	   lui        a1,0x30
        00102058 0c 00 62 8c  	   lw         v0,0xc(v1)
        0010205c 98 f4 a5 24  	   addiu      a1,a1,-0xb68
        00102060 ff ff 84 34  	   ori        a0,a0,0xffff
        00102064 08 00 65 ac  	   sw         a1=>DAT_002ff498,0x8(v1)
        00102068 24 10 47 00  	   and        v0,v0,a3
        0010206c 00 00 64 ac  	   sw         a0,0x0(v1)
        00102070 53 0b 00 10  	   beq        zero,zero,LAB_00104dc0
        00102074 24 10 48 00  	   _and       v0,v0,t0
                             LAB_00102078                                    XREF[1]:     002ec7bc(*)  
        00102078 3c 07 06 0c  	   jal        MemoryAllocate                                   void * MemoryAllocate(uint memor
        0010207c 10 00 04 24  	   _li        a0,0x10
        00102080 2d 18 40 00  	   move       v1,v0
        00102084 ff fe 06 24  	   li         a2,-0x101
        00102088 ff 00 02 24  	   li         v0,0xff
        0010208c ff fd 08 24  	   li         t0,-0x201
        00102090 0c 00 62 a0  	   sb         v0,0xc(v1)
        00102094 ff fb 09 24  	   li         t1,-0x401
        00102098 ff f7 07 24  	   li         a3,-0x801
        0010209c ff 00 04 3c  	   lui        a0,0xff
        001020a0 0c 00 62 8c  	   lw         v0,0xc(v1)
        001020a4 30 00 05 3c  	   lui        a1,0x30
        001020a8 58 f4 a5 24  	   addiu      a1,a1,-0xba8
        001020ac ff ff 84 34  	   ori        a0,a0,0xffff
        001020b0 24 10 46 00  	   and        v0,v0,a2
        001020b4 00 00 64 ac  	   sw         a0,0x0(v1)
        001020b8 24 10 48 00  	   and        v0,v0,t0
        001020bc 08 00 65 ac  	   sw         a1=>DAT_002ff458,0x8(v1)
        001020c0 24 10 49 00  	   and        v0,v0,t1
        001020c4 04 00 60 ac  	   sw         zero,0x4(v1)
        001020c8 3f 0b 00 10  	   beq        zero,zero,LAB_00104dc8
        001020cc 24 10 47 00  	   _and       v0,v0,a3
                             LAB_001020d0                                    XREF[1]:     002ec7c0(*)  
        001020d0 3c 07 06 0c  	   jal        MemoryAllocate                                   void * MemoryAllocate(uint memor
        001020d4 18 00 04 24  	   _li        a0,0x18
        001020d8 ff 00 04 3c  	   lui        a0,0xff
        001020dc 2d 80 40 00  	   move       s0,v0
        001020e0 ff ff 84 34  	   ori        a0,a0,0xffff
        001020e4 30 00 03 3c  	   lui        v1,0x30
        001020e8 18 e7 63 24  	   addiu      v1,v1,-0x18e8
        001020ec 00 00 04 ae  	   sw         a0,0x0(s0)
        001020f0 08 00 03 ae  	   sw         v1=>DAT_002fe718,0x8(s0)
        001020f4 0c 00 04 26  	   addiu      a0,s0,0xc
        001020f8 76 70 04 0c  	   jal        SetUndefinedID?                                  undefined SetUndefinedID?(short 
        001020fc 04 00 00 ae  	   _sw        zero,0x4(s0)
        00102100 ff 00 02 24  	   li         v0,0xff
        00102104 ff fe 05 24  	   li         a1,-0x101
        00102108 10 00 02 a2  	   sb         v0,0x10(s0)
        0010210c ff fd 06 24  	   li         a2,-0x201
        00102110 ff fb 07 24  	   li         a3,-0x401
        00102114 ff f7 08 24  	   li         t0,-0x801
        00102118 10 00 03 8e  	   lw         v1,0x10(s0)
        0010211c ff ff 04 34  	   ori        a0,zero,0xffff
        00102120 0c 00 04 a6  	   sh         a0,0xc(s0)
        00102124 2d 10 00 02  	   move       v0,s0
        00102128 24 18 65 00  	   and        v1,v1,a1
        0010212c 0e 00 04 a6  	   sh         a0,0xe(s0)
        00102130 24 18 66 00  	   and        v1,v1,a2
        00102134 14 00 00 ae  	   sw         zero,0x14(s0)
        00102138 24 18 67 00  	   and        v1,v1,a3
        0010213c 24 18 68 00  	   and        v1,v1,t0
        00102140 b8 12 00 10  	   beq        zero,zero,LAB_00106c24
        00102144 10 00 03 ae  	   _sw        v1,0x10(s0)
                             LAB_00102148                                    XREF[1]:     002ecf50(*)  
        00102148 3c 07 06 0c  	   jal        MemoryAllocate                                   void * MemoryAllocate(uint memor
        0010214c 10 00 04 24  	   _li        a0,0x10
        00102150 ff 00 04 3c  	   lui        a0,0xff
        00102154 2f 00 05 3c  	   lui        a1,0x2f
        00102158 80 3f 01 3c  	   lui        at,0x3f80
        0010215c 00 00 81 44  	   mtc1       at,f0
        00102160 2d 18 40 00  	   move       v1,v0
        00102164 40 0e 00 10  	   beq        zero,zero,LAB_00105a68
        00102168 48 ee a5 24  	   _addiu     a1,a1,-0x11b8
                             LAB_0010216c                                    XREF[1]:     002ecf54(*)  
        0010216c 3c 07 06 0c  	   jal        MemoryAllocate                                   void * MemoryAllocate(uint memor
        00102170 0c 00 04 24  	   _li        a0,0xc
        00102174 ff 00 03 3c  	   lui        v1,0xff
        00102178 2f 00 04 3c  	   lui        a0,0x2f
        0010217c 2d 28 40 00  	   move       a1,v0
        00102180 a2 12 00 10  	   beq        zero,zero,LAB_00106c0c
        00102184 08 ee 84 24  	   _addiu     a0,a0,-0x11f8
                             LAB_00102188                                    XREF[1]:     002ec5a0(*)  
        00102188 3c 07 06 0c  	   jal        MemoryAllocate                                   void * MemoryAllocate(uint memor
        0010218c 10 00 04 24  	   _li        a0,0x10
        00102190 2d 18 40 00  	   move       v1,v0
        00102194 ff fe 06 24  	   li         a2,-0x101
        00102198 ff 00 02 24  	   li         v0,0xff
        0010219c ff f1 08 24  	   li         t0,-0xe01
        001021a0 0c 00 62 a0  	   sb         v0,0xc(v1)
        001021a4 ff ef 09 24  	   li         t1,-0x1001
        001021a8 ff df 07 24  	   li         a3,-0x2001
        001021ac ff 00 04 3c  	   lui        a0,0xff
        001021b0 0c 00 62 8c  	   lw         v0,0xc(v1)
        001021b4 30 00 05 3c  	   lui        a1,0x30
        001021b8 18 ef a5 24  	   addiu      a1,a1,-0x10e8
        001021bc ff ff 84 34  	   ori        a0,a0,0xffff
        001021c0 24 10 46 00  	   and        v0,v0,a2
        001021c4 00 00 64 ac  	   sw         a0,0x0(v1)
        001021c8 24 10 48 00  	   and        v0,v0,t0
        001021cc 08 00 65 ac  	   sw         a1=>DAT_002fef18,0x8(v1)
        001021d0 24 10 49 00  	   and        v0,v0,t1
        001021d4 04 00 60 ac  	   sw         zero,0x4(v1)
        001021d8 fb 0a 00 10  	   beq        zero,zero,LAB_00104dc8
        001021dc 24 10 47 00  	   _and       v0,v0,a3
                             LAB_001021e0                                    XREF[1]:     002ec5e4(*)  
        001021e0 3c 07 06 0c  	   jal        MemoryAllocate                                   void * MemoryAllocate(uint memor
        001021e4 10 00 04 24  	   _li        a0,0x10
        001021e8 2d 18 40 00  	   move       v1,v0
        001021ec ff 00 05 3c  	   lui        a1,0xff
        001021f0 ff 00 02 24  	   li         v0,0xff
        001021f4 ff f8 06 24  	   li         a2,-0x701
        001021f8 0c 00 62 a0  	   sb         v0,0xc(v1)
        001021fc ff ff a5 34  	   ori        a1,a1,0xffff
        00102200 30 00 02 3c  	   lui        v0,0x30
        00102204 00 00 65 ac  	   sw         a1,0x0(v1)
        00102208 0c 00 64 8c  	   lw         a0,0xc(v1)
        0010220c d8 ee 42 24  	   addiu      v0,v0,-0x1128
        00102210 08 00 62 ac  	   sw         v0=>DAT_002feed8,0x8(v1)
        00102214 24 20 86 00  	   and        a0,a0,a2
        00102218 6d 11 00 10  	   beq        zero,zero,LAB_001067d0
        0010221c 2d 10 60 00  	   _move      v0,v1
                             LAB_00102220                                    XREF[1]:     002ec698(*)  
        00102220 3c 07 06 0c  	   jal        MemoryAllocate                                   void * MemoryAllocate(uint memor
        00102224 10 00 04 24  	   _li        a0,0x10
        00102228 2d 18 40 00  	   move       v1,v0
        0010222c ff f8 06 24  	   li         a2,-0x701
        00102230 ff 00 02 24  	   li         v0,0xff
        00102234 ff 00 05 3c  	   lui        a1,0xff
        00102238 0c 00 62 a0  	   sb         v0,0xc(v1)
        0010223c ff ff a5 34  	   ori        a1,a1,0xffff
        00102240 30 00 02 3c  	   lui        v0,0x30
        00102244 00 00 65 ac  	   sw         a1,0x0(v1)
        00102248 0c 00 64 8c  	   lw         a0,0xc(v1)
        0010224c d8 ee 42 24  	   addiu      v0,v0,-0x1128
        00102250 08 00 62 ac  	   sw         v0=>DAT_002feed8,0x8(v1)
        00102254 24 20 86 00  	   and        a0,a0,a2
        00102258 2d 10 60 00  	   move       v0,v1
        0010225c 46 0a 00 10  	   beq        zero,zero,LAB_00104b78
        00102260 00 01 84 34  	   _ori       a0,a0,0x100
                             LAB_00102264                                    XREF[1]:     002ec69c(*)  
        00102264 3c 07 06 0c  	   jal        MemoryAllocate                                   void * MemoryAllocate(uint memor
        00102268 10 00 04 24  	   _li        a0,0x10
        0010226c 2d 18 40 00  	   move       v1,v0
        00102270 ff f8 06 24  	   li         a2,-0x701
        00102274 ff 00 02 24  	   li         v0,0xff
        00102278 ff 00 05 3c  	   lui        a1,0xff
        0010227c 0c 00 62 a0  	   sb         v0,0xc(v1)
        00102280 ff ff a5 34  	   ori        a1,a1,0xffff
        00102284 30 00 02 3c  	   lui        v0,0x30
        00102288 00 00 65 ac  	   sw         a1,0x0(v1)
        0010228c 0c 00 64 8c  	   lw         a0,0xc(v1)
        00102290 d8 ee 42 24  	   addiu      v0,v0,-0x1128
        00102294 08 00 62 ac  	   sw         v0=>DAT_002feed8,0x8(v1)
        00102298 24 20 86 00  	   and        a0,a0,a2
        0010229c 2d 10 60 00  	   move       v0,v1
        001022a0 35 0a 00 10  	   beq        zero,zero,LAB_00104b78
        001022a4 00 02 84 34  	   _ori       a0,a0,0x200
                             LAB_001022a8                                    XREF[1]:     002ec628(*)  
        001022a8 3c 07 06 0c  	   jal        MemoryAllocate                                   void * MemoryAllocate(uint memor
        001022ac 20 00 04 24  	   _li        a0,0x20
        001022b0 2d 18 40 00  	   move       v1,v0
        001022b4 80 3f 01 3c  	   lui        at,0x3f80
        001022b8 00 00 81 44  	   mtc1       at,f0
        001022bc 0c 00 66 8c  	   lw         a2,0xc(v1)
        001022c0 f8 ff 02 24  	   li         v0,-0x8
        001022c4 ff 00 05 3c  	   lui        a1,0xff
        001022c8 30 00 04 3c  	   lui        a0,0x30
        001022cc 24 30 c2 00  	   and        a2,a2,v0
        001022d0 58 ef 84 24  	   addiu      a0,a0,-0x10a8
        001022d4 ff ff a5 34  	   ori        a1,a1,0xffff
        001022d8 08 00 64 ac  	   sw         a0=>DAT_002fef58,0x8(v1)
        001022dc 00 00 65 ac  	   sw         a1,0x0(v1)
        001022e0 2d 10 60 00  	   move       v0,v1
        001022e4 90 0a 00 10  	   beq        zero,zero,LAB_00104d28
        001022e8 0c 00 66 ac  	   _sw        a2,0xc(v1)
                             LAB_001022ec                                    XREF[1]:     002ec600(*)  
        001022ec 3c 07 06 0c  	   jal        MemoryAllocate                                   void * MemoryAllocate(uint memor
        001022f0 0c 00 04 24  	   _li        a0,0xc
        001022f4 ff 00 03 3c  	   lui        v1,0xff
        001022f8 30 00 04 3c  	   lui        a0,0x30
        001022fc 2d 28 40 00  	   move       a1,v0
        00102300 42 12 00 10  	   beq        zero,zero,LAB_00106c0c
        00102304 d8 ed 84 24  	   _addiu     a0,a0,-0x1228
                             LAB_00102308                                    XREF[1]:     002ec5f8(*)  
        00102308 3c 07 06 0c  	   jal        MemoryAllocate                                   void * MemoryAllocate(uint memor
        0010230c 0c 00 04 24  	   _li        a0,0xc
        00102310 ff 00 03 3c  	   lui        v1,0xff
        00102314 30 00 04 3c  	   lui        a0,0x30
        00102318 2d 28 40 00  	   move       a1,v0
        0010231c 3b 12 00 10  	   beq        zero,zero,LAB_00106c0c
        00102320 f8 18 84 24  	   _addiu     a0,a0,0x18f8
                             LAB_00102324                                    XREF[1]:     002ec5fc(*)  
        00102324 3c 07 06 0c  	   jal        MemoryAllocate                                   void * MemoryAllocate(uint memor
        00102328 20 00 04 24  	   _li        a0,0x20
        0010232c 2d 28 40 00  	   move       a1,v0
        00102330 30 00 03 3c  	   lui        v1,0x30
        00102334 ff 00 02 24  	   li         v0,0xff
        00102338 78 18 63 24  	   addiu      v1,v1,0x1878
        0010233c 0d 00 a2 a0  	   sb         v0,0xd(a1)
        00102340 f0 ff 07 34  	   ori        a3,zero,0xfff0
        00102344 38 3c 07 00  	   dsll       a3,a3,0x10
        00102348 ff ff e7 34  	   ori        a3,a3,0xffff
        0010234c 38 3c 07 00  	   dsll       a3,a3,0x10
        00102350 ff ff e7 34  	   ori        a3,a3,0xffff
        00102354 38 3c 07 00  	   dsll       a3,a3,0x10
        00102358 ff ff e7 34  	   ori        a3,a3,0xffff
        0010235c 0c 00 a2 a0  	   sb         v0,0xc(a1)
        00102360 ef ff 08 34  	   ori        t0,zero,0xffef
        00102364 38 44 08 00  	   dsll       t0,t0,0x10
        00102368 ff ff 08 35  	   ori        t0,t0,0xffff
        0010236c 38 44 08 00  	   dsll       t0,t0,0x10
        00102370 ff ff 08 35  	   ori        t0,t0,0xffff
        00102374 38 44 08 00  	   dsll       t0,t0,0x10
        00102378 ff ff 08 35  	   ori        t0,t0,0xffff
        0010237c 08 00 a3 ac  	   sw         v1=>DAT_00301878,0x8(a1)
        00102380 ff 00 04 3c  	   lui        a0,0xff
        00102384 df ff 06 34  	   ori        a2,zero,0xffdf
        00102388 38 34 06 00  	   dsll       a2,a2,0x10
        0010238c ff ff c6 34  	   ori        a2,a2,0xffff
        00102390 38 34 06 00  	   dsll       a2,a2,0x10
        00102394 ff ff c6 34  	   ori        a2,a2,0xffff
        00102398 38 34 06 00  	   dsll       a2,a2,0x10
        0010239c ff ff c6 34  	   ori        a2,a2,0xffff
        001023a0 ff ff 84 34  	   ori        a0,a0,0xffff
        001023a4 08 00 a3 dc  	   ld         v1,0x8(a1)
        001023a8 2d 10 a0 00  	   move       v0,a1
        001023ac 00 00 a4 ac  	   sw         a0,0x0(a1)
        001023b0 24 18 67 00  	   and        v1,v1,a3
        001023b4 04 00 a0 ac  	   sw         zero,0x4(a1)
        001023b8 24 18 68 00  	   and        v1,v1,t0
        001023bc 24 18 66 00  	   and        v1,v1,a2
        001023c0 18 12 00 10  	   beq        zero,zero,LAB_00106c24
        001023c4 08 00 a3 fc  	   _sd        v1,0x8(a1)
                             LAB_001023c8                                    XREF[1]:     002ec784(*)  
        001023c8 3c 07 06 0c  	   jal        MemoryAllocate                                   void * MemoryAllocate(uint memor
        001023cc 14 00 04 24  	   _li        a0,0x14
        001023d0 2d 20 40 00  	   move       a0,v0
        001023d4 fd ff 06 24  	   li         a2,-0x3
        001023d8 10 00 83 8c  	   lw         v1,0x10(a0)
        001023dc fe ff 02 24  	   li         v0,-0x2
        001023e0 f7 ff 07 24  	   li         a3,-0x9
        001023e4 ef ff 08 24  	   li         t0,-0x11
        001023e8 24 18 62 00  	   and        v1,v1,v0
        001023ec ff 00 05 3c  	   lui        a1,0xff
        001023f0 24 18 66 00  	   and        v1,v1,a2
        001023f4 30 00 02 3c  	   lui        v0,0x30
        001023f8 04 00 63 34  	   ori        v1,v1,0x4
        001023fc 38 18 42 24  	   addiu      v0,v0,0x1838
        00102400 24 18 67 00  	   and        v1,v1,a3
        00102404 80 3f 01 3c  	   lui        at,0x3f80
        00102408 00 00 81 44  	   mtc1       at,f0
        0010240c 24 18 68 00  	   and        v1,v1,t0
        00102410 ff ff a5 34  	   ori        a1,a1,0xffff
        00102414 20 00 63 34  	   ori        v1,v1,0x20
        00102418 08 00 82 ac  	   sw         v0=>DAT_00301838,0x8(a0)
        0010241c 00 00 85 ac  	   sw         a1,0x0(a0)
        00102420 2d 10 80 00  	   move       v0,a0
        00102424 0c 00 80 e4  	   swc1       f0,0xc(a0)
                             LAB_00102428                                    XREF[1]:     00101e80(j)  
        00102428 10 00 83 ac  	   sw         v1,0x10(a0)
        0010242c fd 11 00 10  	   beq        zero,zero,LAB_00106c24
        00102430 04 00 80 ac  	   _sw        zero,0x4(a0)
                             LAB_00102434                                    XREF[1]:     002ec614(*)  
        00102434 3c 07 06 0c  	   jal        MemoryAllocate                                   void * MemoryAllocate(uint memor
        00102438 10 00 04 24  	   _li        a0,0x10
        0010243c ff 00 04 3c  	   lui        a0,0xff
        00102440 30 00 05 3c  	   lui        a1,0x30
        00102444 2d 18 40 00  	   move       v1,v0
        00102448 5c 11 00 10  	   beq        zero,zero,LAB_001069bc
        0010244c 98 ee a5 24  	   _addiu     a1=>DAT_002fee98,a1,-0x1168
                             LAB_00102450                                    XREF[1]:     002ec61c(*)  
        00102450 3c 07 06 0c  	   jal        MemoryAllocate                                   void * MemoryAllocate(uint memor
        00102454 10 00 04 24  	   _li        a0,0x10
        00102458 2d 18 40 00  	   move       v1,v0
        0010245c 30 00 04 3c  	   lui        a0,0x30
        00102460 0c 00 66 8c  	   lw         a2,0xc(v1)
        00102464 ff 00 02 3c  	   lui        v0,0xff
        00102468 ff ff 42 34  	   ori        v0,v0,0xffff
        0010246c f8 ff 05 24  	   li         a1,-0x8
        00102470 58 ee 84 24  	   addiu      a0,a0,-0x11a8
        00102474 24 30 c5 00  	   and        a2,a2,a1
        00102478 00 00 62 ac  	   sw         v0,0x0(v1)
        0010247c 2d 10 60 00  	   move       v0,v1
        00102480 eb 0f 00 10  	   beq        zero,zero,LAB_00106430
        00102484 08 00 64 ac  	   _sw        a0=>DAT_002fee58,0x8(v1)
                             LAB_00102488                                    XREF[1]:     002ec63c(*)  
        00102488 3c 07 06 0c  	   jal        MemoryAllocate                                   void * MemoryAllocate(uint memor
        0010248c 10 00 04 24  	   _li        a0,0x10
        00102490 2d 18 40 00  	   move       v1,v0
        00102494 30 00 04 3c  	   lui        a0,0x30
        00102498 0c 00 66 8c  	   lw         a2,0xc(v1)
        0010249c ff 00 02 3c  	   lui        v0,0xff
        001024a0 ff ff 42 34  	   ori        v0,v0,0xffff
        001024a4 f8 ff 05 24  	   li         a1,-0x8
        001024a8 18 ee 84 24  	   addiu      a0,a0,-0x11e8
        001024ac 24 30 c5 00  	   and        a2,a2,a1
        001024b0 00 00 62 ac  	   sw         v0,0x0(v1)
        001024b4 2d 10 60 00  	   move       v0,v1
        001024b8 dd 0f 00 10  	   beq        zero,zero,LAB_00106430
        001024bc 08 00 64 ac  	   _sw        a0=>DAT_002fee18,0x8(v1)
                             LAB_001024c0                                    XREF[1]:     002ec620(*)  
        001024c0 3c 07 06 0c  	   jal        MemoryAllocate                                   void * MemoryAllocate(uint memor
        001024c4 60 00 04 24  	   _li        a0,0x60
        001024c8 ff 00 03 3c  	   lui        v1,0xff
        001024cc 30 00 05 3c  	   lui        a1,0x30
        001024d0 2d 20 40 00  	   move       a0,v0
        001024d4 18 f0 a5 24  	   addiu      a1,a1,-0xfe8
        001024d8 80 3f 01 3c  	   lui        at,0x3f80
        001024dc 00 00 81 44  	   mtc1       at,f0
        001024e0 ff ff 63 34  	   ori        v1,v1,0xffff
        001024e4 00 00 83 ac  	   sw         v1,0x0(a0)
        001024e8 10 00 82 24  	   addiu      v0,a0,0x10
        001024ec 08 00 85 ac  	   sw         a1=>DAT_002ff018,0x8(a0)
        001024f0 ff 00 06 24  	   li         a2,0xff
        001024f4 04 00 80 ac  	   sw         zero,0x4(a0)
        001024f8 f0 ff 05 3c  	   lui        a1,0xfff0
        001024fc ff ff a5 34  	   ori        a1,a1,0xffff
        00102500 10 00 80 ac  	   sw         zero,0x10(a0)
        00102504 ef ff 07 3c  	   lui        a3,0xffef
        00102508 ff ff e7 34  	   ori        a3,a3,0xffff
        0010250c 0c 00 40 e4  	   swc1       f0,0xc(v0)
        00102510 df ff 08 3c  	   lui        t0,0xffdf
        00102514 ff ff 08 35  	   ori        t0,t0,0xffff
        00102518 04 00 40 ac  	   sw         zero,0x4(v0)
        0010251c bf ff 09 3c  	   lui        t1,0xffbf
        00102520 ff ff 29 35  	   ori        t1,t1,0xffff
        00102524 08 00 40 ac  	   sw         zero,0x8(v0)
        00102528 7f fc 0a 3c  	   lui        t2,0xfc7f
        0010252c ff ff 4a 35  	   ori        t2,t2,0xffff
        00102530 20 00 86 a0  	   sb         a2,0x20(a0)
        00102534 ff fb 0b 3c  	   lui        t3,0xfbff
        00102538 ff ff 6b 35  	   ori        t3,t3,0xffff
        0010253c 21 00 86 a0  	   sb         a2,0x21(a0)
        00102540 ff f7 0c 3c  	   lui        t4,0xf7ff
        00102544 ff ff 8c 35  	   ori        t4,t4,0xffff
        00102548 ff ef 0d 3c  	   lui        t5,0xefff
        0010254c ff ff ad 35  	   ori        t5,t5,0xffff
        00102550 ff df 0e 3c  	   lui        t6,0xdfff
        00102554 ff ff ce 35  	   ori        t6,t6,0xffff
        00102558 20 00 83 dc  	   ld         v1,0x20(a0)
        0010255c ff bf 0f 3c  	   lui        t7,0xbfff
        00102560 ff ff ef 35  	   ori        t7,t7,0xffff
        00102564 ff bf 10 3c  	   lui        s0,0xbfff
        00102568 ff ff 10 36  	   ori        s0,s0,0xffff
        0010256c 78 80 10 00  	   dsll       s0,s0,0x1
        00102570 01 00 10 36  	   ori        s0,s0,0x1
        00102574 ff bf 11 3c  	   lui        s1,0xbfff
        00102578 ff ff 31 36  	   ori        s1,s1,0xffff
        0010257c b8 88 11 00  	   dsll       s1,s1,0x2
        00102580 03 00 31 36  	   ori        s1,s1,0x3
        00102584 24 18 65 00  	   and        v1,v1,a1
        00102588 2c 00 80 e4  	   swc1       f0,0x2c(a0)
        0010258c 24 18 67 00  	   and        v1,v1,a3
        00102590 4c 00 86 a0  	   sb         a2,0x4c(a0)
        00102594 24 18 68 00  	   and        v1,v1,t0
        00102598 2d 10 80 00  	   move       v0,a0
        0010259c 24 18 69 00  	   and        v1,v1,t1
        001025a0 30 00 80 ac  	   sw         zero,0x30(a0)
        001025a4 24 18 6a 00  	   and        v1,v1,t2
        001025a8 34 00 80 ac  	   sw         zero,0x34(a0)
        001025ac 24 18 6b 00  	   and        v1,v1,t3
        001025b0 38 00 80 ac  	   sw         zero,0x38(a0)
        001025b4 24 18 6c 00  	   and        v1,v1,t4
        001025b8 3c 00 80 ac  	   sw         zero,0x3c(a0)
        001025bc 24 18 6d 00  	   and        v1,v1,t5
        001025c0 40 00 80 ac  	   sw         zero,0x40(a0)
        001025c4 24 18 6e 00  	   and        v1,v1,t6
        001025c8 44 00 80 ac  	   sw         zero,0x44(a0)
        001025cc 24 18 6f 00  	   and        v1,v1,t7
        001025d0 48 00 80 ac  	   sw         zero,0x48(a0)
        001025d4 24 18 70 00  	   and        v1,v1,s0
        001025d8 50 00 80 ac  	   sw         zero,0x50(a0)
        001025dc 24 18 71 00  	   and        v1,v1,s1
        001025e0 90 11 00 10  	   beq        zero,zero,LAB_00106c24
        001025e4 20 00 83 fc  	   _sd        v1,0x20(a0)
                             LAB_001025e8                                    XREF[1]:     002ec724(*)  
        001025e8 3c 07 06 0c  	   jal        MemoryAllocate                                   void * MemoryAllocate(uint memor
        001025ec 20 00 04 24  	   _li        a0,0x20
        001025f0 ff 00 04 3c  	   lui        a0,0xff
        001025f4 30 00 05 3c  	   lui        a1,0x30
        001025f8 2d 18 40 00  	   move       v1,v0
        001025fc d8 ef a5 24  	   addiu      a1=>DAT_002fefd8,a1,-0x1028
        00102600 ff ff 84 34  	   ori        a0,a0,0xffff
        00102604 80 3f 01 3c  	   lui        at,0x3f80
        00102608 00 00 81 44  	   mtc1       at,f0
        0010260c 00 00 64 ac  	   sw         a0,0x0(v1)
        00102610 10 00 66 24  	   addiu      a2,v1,0x10
        00102614 08 00 65 ac  	   sw         a1=>DAT_002fefd8,0x8(v1)
        00102618 04 00 60 ac  	   sw         zero,0x4(v1)
        0010261c 10 00 60 ac  	   sw         zero,0x10(v1)
        00102620 0c 00 c0 e4  	   swc1       f0,0xc(a2)
        00102624 04 00 c0 ac  	   sw         zero,0x4(a2)
        00102628 7e 11 00 10  	   beq        zero,zero,LAB_00106c24
        0010262c 08 00 c0 ac  	   _sw        zero,0x8(a2)
                             LAB_00102630                                    XREF[1]:     002ec714(*)  
        00102630 3c 07 06 0c  	   jal        MemoryAllocate                                   void * MemoryAllocate(uint memor
        00102634 14 00 04 24  	   _li        a0,0x14
        00102638 ff 00 04 3c  	   lui        a0,0xff
        0010263c 30 00 05 3c  	   lui        a1,0x30
        00102640 80 3f 01 3c  	   lui        at,0x3f80
        00102644 00 00 81 44  	   mtc1       at,f0
        00102648 2d 18 40 00  	   move       v1,v0
        0010264c 98 ef a5 24  	   addiu      a1=>DAT_002fef98,a1,-0x1068
        00102650 ff ff 84 34  	   ori        a0,a0,0xffff
        00102654 00 00 64 ac  	   sw         a0,0x0(v1)
        00102658 08 00 65 ac  	   sw         a1=>DAT_002fef98,0x8(v1)
        0010265c 06 0f 00 10  	   beq        zero,zero,LAB_00106278
        00102660 0c 00 60 e4  	   _swc1      f0,0xc(v1)
                             LAB_00102664                                    XREF[1]:     002ecde8(*)  
        00102664 3c 07 06 0c  	   jal        MemoryAllocate                                   void * MemoryAllocate(uint memor
        00102668 10 00 04 24  	   _li        a0,0x10
        0010266c 2d 28 40 00  	   move       a1,v0
        00102670 fc ff 04 24  	   li         a0,-0x4
        00102674 0c 00 a3 8c  	   lw         v1,0xc(a1)
        00102678 f3 ff 06 24  	   li         a2,-0xd
        0010267c cf ff 07 24  	   li         a3,-0x31
        00102680 3f ff 08 24  	   li         t0,-0xc1
        00102684 24 18 64 00  	   and        v1,v1,a0
        00102688 ff 00 02 3c  	   lui        v0,0xff
        0010268c 24 18 66 00  	   and        v1,v1,a2
        00102690 ff ff 42 34  	   ori        v0,v0,0xffff
        00102694 24 18 67 00  	   and        v1,v1,a3
        00102698 2f 00 04 3c  	   lui        a0,0x2f
        0010269c ff fc 06 24  	   li         a2,-0x301
        001026a0 24 18 68 00  	   and        v1,v1,t0
        001026a4 97 0c 00 10  	   beq        zero,zero,LAB_00105904
        001026a8 c8 f0 84 24  	   _addiu     a0,a0,-0xf38
                             LAB_001026ac                                    XREF[1]:     002ec778(*)  
        001026ac 3c 07 06 0c  	   jal        MemoryAllocate                                   void * MemoryAllocate(uint memor
        001026b0 10 00 04 24  	   _li        a0,0x10
        001026b4 2d 20 40 00  	   move       a0,v0
        001026b8 ff fe 07 24  	   li         a3,-0x101
        001026bc ff 00 02 24  	   li         v0,0xff
        001026c0 ff fd 08 24  	   li         t0,-0x201
        001026c4 0c 00 82 a0  	   sb         v0,0xc(a0)
        001026c8 ff fb 09 24  	   li         t1,-0x401
        001026cc ff f7 0a 24  	   li         t2,-0x801
        001026d0 ff 8f 0b 24  	   li         t3,-0x7001
        001026d4 0c 00 83 8c  	   lw         v1,0xc(a0)
        001026d8 ff ff 06 3c  	   lui        a2,0xffff
        001026dc 30 00 02 3c  	   lui        v0,0x30
        001026e0 ff 00 05 3c  	   lui        a1,0xff
        001026e4 24 18 67 00  	   and        v1,v1,a3
        001026e8 18 ed 42 24  	   addiu      v0,v0,-0x12e8
        001026ec 24 18 68 00  	   and        v1,v1,t0
        001026f0 ff 7f c6 34  	   ori        a2,a2,0x7fff
        001026f4 24 18 69 00  	   and        v1,v1,t1
        001026f8 ff ff a5 34  	   ori        a1,a1,0xffff
        001026fc 24 18 6a 00  	   and        v1,v1,t2
        00102700 08 00 82 ac  	   sw         v0=>DAT_002fed18,0x8(a0)
        00102704 24 18 6b 00  	   and        v1,v1,t3
        00102708 00 00 85 ac  	   sw         a1,0x0(a0)
        0010270c 24 18 66 00  	   and        v1,v1,a2
        00102710 2d 10 80 00  	   move       v0,a0
                             LAB_00102714                                    XREF[2]:     0010198c(j), 00101d9c(j)  
        00102714 0c 00 83 ac  	   sw         v1,0xc(a0)
        00102718 42 11 00 10  	   beq        zero,zero,LAB_00106c24
        0010271c 04 00 80 ac  	   _sw        zero,0x4(a0)
                             LAB_00102720                                    XREF[1]:     002ec854(*)  
        00102720 3c 07 06 0c  	   jal        MemoryAllocate                                   void * MemoryAllocate(uint memor
        00102724 18 00 04 24  	   _li        a0,0x18
        00102728 2d 30 40 00  	   move       a2,v0
        0010272c 0f 00 03 3c  	   lui        v1,0xf
        00102730 14 00 c4 8c  	   lw         a0,0x14(a2)
        00102734 f0 ff 02 24  	   li         v0,-0x10
        00102738 f7 07 00 10  	   beq        zero,zero,LAB_00104718
        0010273c f0 ff 63 34  	   _ori       v1,v1,0xfff0
                             LAB_00102740                                    XREF[2]:     002ec554(*), 002ecdac(*)  
        00102740 3c 07 06 0c  	   jal        MemoryAllocate                                   void * MemoryAllocate(uint memor
        00102744 24 00 04 24  	   _li        a0,0x24
        00102748 be 86 08 0c  	   jal        FUN_00221af8                                     undefined8 FUN_00221af8(undefine
        0010274c 2d 20 40 00  	   _move      a0,v0
        00102750 35 11 00 10  	   beq        zero,zero,LAB_00106c28
        00102754 30 00 b0 df  	   _ld        s0,0x30(sp)
                             LAB_00102758                                    XREF[1]:     002ec610(*)  
        00102758 3c 07 06 0c  	   jal        MemoryAllocate                                   void * MemoryAllocate(uint memor
        0010275c 14 00 04 24  	   _li        a0,0x14
        00102760 f4 86 08 0c  	   jal        FUN_00221bd0                                     undefined8 FUN_00221bd0(undefine
        00102764 2d 20 40 00  	   _move      a0,v0
        00102768 2f 11 00 10  	   beq        zero,zero,LAB_00106c28
        0010276c 30 00 b0 df  	   _ld        s0,0x30(sp)
                             LAB_00102770                                    XREF[1]:     002ec658(*)  
        00102770 3c 07 06 0c  	   jal        MemoryAllocate                                   void * MemoryAllocate(uint memor
        00102774 10 00 04 24  	   _li        a0,0x10
        00102778 2d 18 40 00  	   move       v1,v0
        0010277c 30 00 04 3c  	   lui        a0,0x30
        00102780 0c 00 66 8c  	   lw         a2,0xc(v1)
        00102784 ff 00 02 3c  	   lui        v0,0xff
        00102788 ff ff 42 34  	   ori        v0,v0,0xffff
        0010278c f0 ff 05 24  	   li         a1,-0x10
        00102790 58 f1 84 24  	   addiu      a0,a0,-0xea8
        00102794 24 30 c5 00  	   and        a2,a2,a1
        00102798 00 00 62 ac  	   sw         v0,0x0(v1)
        0010279c 2d 10 60 00  	   move       v0,v1
        001027a0 23 0f 00 10  	   beq        zero,zero,LAB_00106430
        001027a4 08 00 64 ac  	   _sw        a0=>DAT_002ff158,0x8(v1)
                             LAB_001027a8                                    XREF[1]:     002ec81c(*)  
        001027a8 3c 07 06 0c  	   jal        MemoryAllocate                                   void * MemoryAllocate(uint memor
        001027ac 1c 00 04 24  	   _li        a0,0x1c
        001027b0 ff 00 03 3c  	   lui        v1,0xff
        001027b4 30 00 05 3c  	   lui        a1,0x30
        001027b8 2d 80 40 00  	   move       s0,v0
        001027bc 98 dd a5 24  	   addiu      a1=>DAT_002fdd98,a1,-0x2268
        001027c0 ff ff 63 34  	   ori        v1,v1,0xffff
        001027c4 00 60 80 44  	   clear      f12
        001027c8 00 00 03 ae  	   sw         v1,0x0(s0)
        001027cc 10 00 04 26  	   addiu      a0,s0,0x10
        001027d0 08 00 05 ae  	   sw         a1=>DAT_002fdd98,0x8(s0)
        001027d4 36 26 08 0c  	   jal        FUN_002098d8                                     undefined8 FUN_002098d8(uint par
        001027d8 04 00 00 ae  	   _sw        zero,0x4(s0)
        001027dc 00 60 80 44  	   clear      f12
        001027e0 36 26 08 0c  	   jal        FUN_002098d8                                     undefined8 FUN_002098d8(uint par
        001027e4 14 00 04 26  	   _addiu     a0,s0,0x14
        001027e8 00 60 80 44  	   clear      f12
        001027ec 36 26 08 0c  	   jal        FUN_002098d8                                     undefined8 FUN_002098d8(uint par
        001027f0 18 00 04 26  	   _addiu     a0,s0,0x18
        001027f4 60 00 00 10  	   beq        zero,zero,LAB_00102978
        001027f8 0c 00 04 26  	   _addiu     a0,s0,0xc
                             LAB_001027fc                                    XREF[1]:     002ec820(*)  
        001027fc 3c 07 06 0c  	   jal        MemoryAllocate                                   void * MemoryAllocate(uint memor
        00102800 24 00 04 24  	   _li        a0,0x24
        00102804 ff 00 03 3c  	   lui        v1,0xff
        00102808 30 00 05 3c  	   lui        a1,0x30
        0010280c 2d 80 40 00  	   move       s0,v0
        00102810 58 dd a5 24  	   addiu      a1=>DAT_002fdd58,a1,-0x22a8
        00102814 ff ff 63 34  	   ori        v1,v1,0xffff
        00102818 00 60 80 44  	   clear      f12
        0010281c 00 00 03 ae  	   sw         v1,0x0(s0)
        00102820 10 00 04 26  	   addiu      a0,s0,0x10
        00102824 08 00 05 ae  	   sw         a1=>DAT_002fdd58,0x8(s0)
        00102828 36 26 08 0c  	   jal        FUN_002098d8                                     undefined8 FUN_002098d8(uint par
        0010282c 04 00 00 ae  	   _sw        zero,0x4(s0)
        00102830 00 60 80 44  	   clear      f12
        00102834 36 26 08 0c  	   jal        FUN_002098d8                                     undefined8 FUN_002098d8(uint par
        00102838 14 00 04 26  	   _addiu     a0,s0,0x14
        0010283c 00 60 80 44  	   clear      f12
        00102840 36 26 08 0c  	   jal        FUN_002098d8                                     undefined8 FUN_002098d8(uint par
        00102844 18 00 04 26  	   _addiu     a0,s0,0x18
        00102848 00 60 80 44  	   clear      f12
        0010284c 36 26 08 0c  	   jal        FUN_002098d8                                     undefined8 FUN_002098d8(uint par
        00102850 1c 00 04 26  	   _addiu     a0,s0,0x1c
        00102854 00 60 80 44  	   clear      f12
        00102858 36 26 08 0c  	   jal        FUN_002098d8                                     undefined8 FUN_002098d8(uint par
        0010285c 20 00 04 26  	   _addiu     a0,s0,0x20
        00102860 45 00 00 10  	   beq        zero,zero,LAB_00102978
        00102864 0c 00 04 26  	   _addiu     a0,s0,0xc
                             LAB_00102868                                    XREF[1]:     002ec824(*)  
        00102868 3c 07 06 0c  	   jal        MemoryAllocate                                   void * MemoryAllocate(uint memor
        0010286c 20 00 04 24  	   _li        a0,0x20
        00102870 ff 00 03 3c  	   lui        v1,0xff
        00102874 30 00 05 3c  	   lui        a1,0x30
        00102878 2d 80 40 00  	   move       s0,v0
        0010287c 18 dd a5 24  	   addiu      a1=>DAT_002fdd18,a1,-0x22e8
        00102880 ff ff 63 34  	   ori        v1,v1,0xffff
        00102884 00 60 80 44  	   clear      f12
        00102888 00 00 03 ae  	   sw         v1,0x0(s0)
        0010288c 10 00 04 26  	   addiu      a0,s0,0x10
        00102890 08 00 05 ae  	   sw         a1=>DAT_002fdd18,0x8(s0)
        00102894 36 26 08 0c  	   jal        FUN_002098d8                                     undefined8 FUN_002098d8(uint par
        00102898 04 00 00 ae  	   _sw        zero,0x4(s0)
        0010289c 00 60 80 44  	   clear      f12
        001028a0 36 26 08 0c  	   jal        FUN_002098d8                                     undefined8 FUN_002098d8(uint par
        001028a4 14 00 04 26  	   _addiu     a0,s0,0x14
        001028a8 00 60 80 44  	   clear      f12
        001028ac 36 26 08 0c  	   jal        FUN_002098d8                                     undefined8 FUN_002098d8(uint par
        001028b0 18 00 04 26  	   _addiu     a0,s0,0x18
        001028b4 00 60 80 44  	   clear      f12
        001028b8 36 26 08 0c  	   jal        FUN_002098d8                                     undefined8 FUN_002098d8(uint par
        001028bc 1c 00 04 26  	   _addiu     a0,s0,0x1c
        001028c0 2d 00 00 10  	   beq        zero,zero,LAB_00102978
        001028c4 0c 00 04 26  	   _addiu     a0,s0,0xc
                             LAB_001028c8                                    XREF[1]:     002ec828(*)  
        001028c8 3c 07 06 0c  	   jal        MemoryAllocate                                   void * MemoryAllocate(uint memor
        001028cc 24 00 04 24  	   _li        a0,0x24
        001028d0 ff 00 03 3c  	   lui        v1,0xff
        001028d4 30 00 05 3c  	   lui        a1,0x30
        001028d8 2d 80 40 00  	   move       s0,v0
        001028dc d8 dc a5 24  	   addiu      a1=>DAT_002fdcd8,a1,-0x2328
        001028e0 ff ff 63 34  	   ori        v1,v1,0xffff
        001028e4 00 60 80 44  	   clear      f12
        001028e8 00 00 03 ae  	   sw         v1,0x0(s0)
        001028ec 10 00 04 26  	   addiu      a0,s0,0x10
        001028f0 08 00 05 ae  	   sw         a1=>DAT_002fdcd8,0x8(s0)
        001028f4 36 26 08 0c  	   jal        FUN_002098d8                                     undefined8 FUN_002098d8(uint par
        001028f8 04 00 00 ae  	   _sw        zero,0x4(s0)
        001028fc 00 60 80 44  	   clear      f12
        00102900 36 26 08 0c  	   jal        FUN_002098d8                                     undefined8 FUN_002098d8(uint par
        00102904 14 00 04 26  	   _addiu     a0,s0,0x14
        00102908 00 60 80 44  	   clear      f12
        0010290c 36 26 08 0c  	   jal        FUN_002098d8                                     undefined8 FUN_002098d8(uint par
        00102910 18 00 04 26  	   _addiu     a0,s0,0x18
        00102914 00 60 80 44  	   clear      f12
        00102918 36 26 08 0c  	   jal        FUN_002098d8                                     undefined8 FUN_002098d8(uint par
        0010291c 1c 00 04 26  	   _addiu     a0,s0,0x1c
        00102920 00 60 80 44  	   clear      f12
        00102924 36 26 08 0c  	   jal        FUN_002098d8                                     undefined8 FUN_002098d8(uint par
        00102928 20 00 04 26  	   _addiu     a0,s0,0x20
        0010292c 12 00 00 10  	   beq        zero,zero,LAB_00102978
        00102930 0c 00 04 26  	   _addiu     a0,s0,0xc
                             LAB_00102934                                    XREF[1]:     002ec82c(*)  
        00102934 3c 07 06 0c  	   jal        MemoryAllocate                                   void * MemoryAllocate(uint memor
        00102938 10 00 04 24  	   _li        a0,0x10
        0010293c 30 00 04 3c  	   lui        a0,0x30
        00102940 2d 80 40 00  	   move       s0,v0
        00102944 06 00 00 10  	   beq        zero,zero,LAB_00102960
        00102948 98 dc 84 24  	   _addiu     a0,a0,-0x2368
                             LAB_0010294c                                    XREF[1]:     002ec830(*)  
        0010294c 3c 07 06 0c  	   jal        MemoryAllocate                                   void * MemoryAllocate(uint memor
        00102950 10 00 04 24  	   _li        a0,0x10
        00102954 30 00 04 3c  	   lui        a0,0x30
        00102958 2d 80 40 00  	   move       s0,v0
        0010295c 58 dc 84 24  	   addiu      a0,a0,-0x23a8
                             LAB_00102960                                    XREF[1]:     00102944(j)  
        00102960 ff 00 03 3c  	   lui        v1,0xff
        00102964 ff ff 63 34  	   ori        v1,v1,0xffff
        00102968 08 00 04 ae  	   sw         a0=>DAT_002fdc58,0x8(s0)
        0010296c 00 00 03 ae  	   sw         v1,0x0(s0)
        00102970 0c 00 04 26  	   addiu      a0,s0,0xc
        00102974 04 00 00 ae  	   sw         zero,0x4(s0)
                             LAB_00102978                                    XREF[4]:     001027f4(j), 00102860(j), 
                                                                                          001028c0(j), 0010292c(j)  
        00102978 2d 28 00 00  	   move       a1,zero
        0010297c 7e 1c 0b 0c  	   jal        FillMemory                                       void * FillMemory(void * memory,
        00102980 04 00 06 24  	   _li        a2,0x4
        00102984 a7 10 00 10  	   beq        zero,zero,LAB_00106c24
        00102988 2d 10 00 02  	   _move      v0,s0
                             LAB_0010298c                                    XREF[2]:     002ec558(*), 002ecdb0(*)  
        0010298c 3c 07 06 0c  	   jal        MemoryAllocate                                   void * MemoryAllocate(uint memor
        00102990 30 00 04 24  	   _li        a0,0x30
        00102994 ff 00 03 3c  	   lui        v1,0xff
        00102998 30 00 04 3c  	   lui        a0,0x30
        0010299c 2d 28 40 00  	   move       a1,v0
        001029a0 9a 10 00 10  	   beq        zero,zero,LAB_00106c0c
        001029a4 d8 e3 84 24  	   _addiu     a0,a0,-0x1c28
                             LAB_001029a8                                    XREF[1]:     002ec844(*)  
        001029a8 3c 07 06 0c  	   jal        MemoryAllocate                                   void * MemoryAllocate(uint memor
        001029ac 30 00 04 24  	   _li        a0,0x30
        001029b0 ff 00 04 3c  	   lui        a0,0xff
        001029b4 2d 80 40 00  	   move       s0,v0
        001029b8 ff ff 84 34  	   ori        a0,a0,0xffff
        001029bc 30 00 03 3c  	   lui        v1,0x30
        001029c0 98 e3 63 24  	   addiu      v1,v1,-0x1c68
        001029c4 00 00 04 ae  	   sw         a0,0x0(s0)
        001029c8 08 00 03 ae  	   sw         v1=>DAT_002fe398,0x8(s0)
        001029cc 0c 00 04 26  	   addiu      a0,s0,0xc
        001029d0 76 70 04 0c  	   jal        SetUndefinedID?                                  undefined SetUndefinedID?(short 
        001029d4 04 00 00 ae  	   _sw        zero,0x4(s0)
        001029d8 08 00 02 de  	   ld         v0,0x8(s0)
        001029dc f0 ff 03 34  	   ori        v1,zero,0xfff0
        001029e0 38 1c 03 00  	   dsll       v1,v1,0x10
        001029e4 ff ff 63 34  	   ori        v1,v1,0xffff
        001029e8 38 1c 03 00  	   dsll       v1,v1,0x10
        001029ec ff ff 63 34  	   ori        v1,v1,0xffff
        001029f0 38 1c 03 00  	   dsll       v1,v1,0x10
        001029f4 ff ff 63 34  	   ori        v1,v1,0xffff
        001029f8 ef ff 04 34  	   ori        a0,zero,0xffef
        001029fc 38 24 04 00  	   dsll       a0,a0,0x10
        00102a00 ff ff 84 34  	   ori        a0,a0,0xffff
        00102a04 38 24 04 00  	   dsll       a0,a0,0x10
        00102a08 ff ff 84 34  	   ori        a0,a0,0xffff
        00102a0c 38 24 04 00  	   dsll       a0,a0,0x10
        00102a10 ff ff 84 34  	   ori        a0,a0,0xffff
        00102a14 1f f8 05 34  	   ori        a1,zero,0xf81f
        00102a18 38 2c 05 00  	   dsll       a1,a1,0x10
        00102a1c ff ff a5 34  	   ori        a1,a1,0xffff
        00102a20 38 2c 05 00  	   dsll       a1,a1,0x10
        00102a24 ff ff a5 34  	   ori        a1,a1,0xffff
        00102a28 38 2c 05 00  	   dsll       a1,a1,0x10
        00102a2c ff ff a5 34  	   ori        a1,a1,0xffff
        00102a30 24 10 43 00  	   and        v0,v0,v1
        00102a34 ff f7 06 34  	   ori        a2,zero,0xf7ff
        00102a38 38 34 06 00  	   dsll       a2,a2,0x10
        00102a3c ff ff c6 34  	   ori        a2,a2,0xffff
        00102a40 38 34 06 00  	   dsll       a2,a2,0x10
        00102a44 ff ff c6 34  	   ori        a2,a2,0xffff
        00102a48 38 34 06 00  	   dsll       a2,a2,0x10
        00102a4c ff ff c6 34  	   ori        a2,a2,0xffff
        00102a50 24 10 44 00  	   and        v0,v0,a0
        00102a54 ff ff 03 24  	   li         v1,-0x1
        00102a58 3a 19 03 00  	   dsrl       v1,v1,0x4
        00102a5c 24 10 45 00  	   and        v0,v0,a1
        00102a60 00 80 04 34  	   ori        a0,zero,0x8000
        00102a64 bc 23 04 00  	   dsll32     a0,a0,0xe
        00102a68 24 10 46 00  	   and        v0,v0,a2
        00102a6c a0 40 01 3c  	   lui        at,0x40a0
        00102a70 00 00 81 44  	   mtc1       at,f0
        00102a74 24 10 43 00  	   and        v0,v0,v1
        00102a78 80 3f 01 3c  	   lui        at,0x3f80
        00102a7c 00 08 81 44  	   mtc1       at,f1
        00102a80 25 10 44 00  	   or         v0,v0,a0
        00102a84 10 00 00 e6  	   swc1       f0,0x10(s0)
        00102a88 08 00 02 fe  	   sd         v0,0x8(s0)
        00102a8c 20 00 03 26  	   addiu      v1,s0,0x20
        00102a90 14 00 00 ae  	   sw         zero,0x14(s0)
        00102a94 2d 10 00 02  	   move       v0,s0
        00102a98 18 00 00 ae  	   sw         zero,0x18(s0)
        00102a9c 1c 00 00 ae  	   sw         zero,0x1c(s0)
        00102aa0 20 00 00 ae  	   sw         zero,0x20(s0)
        00102aa4 0c 00 61 e4  	   swc1       f1,0xc(v1)
        00102aa8 04 00 60 ac  	   sw         zero,0x4(v1)
        00102aac 5d 10 00 10  	   beq        zero,zero,LAB_00106c24
        00102ab0 08 00 60 ac  	   _sw        zero,0x8(v1)
                             LAB_00102ab4                                    XREF[2]:     002ec55c(*), 002ecdb4(*)  
        00102ab4 3c 07 06 0c  	   jal        MemoryAllocate                                   void * MemoryAllocate(uint memor
        00102ab8 48 00 04 24  	   _li        a0,0x48
        00102abc 2d 80 40 00  	   move       s0,v0
        00102ac0 f0 ff 03 24  	   li         v1,-0x10
        00102ac4 0c 00 02 8e  	   lw         v0,0xc(s0)
        00102ac8 ff f8 04 24  	   li         a0,-0x701
        00102acc ff f7 05 24  	   li         a1,-0x801
        00102ad0 ff ef 06 24  	   li         a2,-0x1001
        00102ad4 24 10 43 00  	   and        v0,v0,v1
        00102ad8 ff df 07 24  	   li         a3,-0x2001
        00102adc f0 00 42 34  	   ori        v0,v0,0xf0
        00102ae0 ff bf 08 24  	   li         t0,-0x4001
        00102ae4 24 10 44 00  	   and        v0,v0,a0
        00102ae8 ff ff 03 3c  	   lui        v1,0xffff
        00102aec 24 10 45 00  	   and        v0,v0,a1
        00102af0 ff 7f 63 34  	   ori        v1,v1,0x7fff
        00102af4 24 10 46 00  	   and        v0,v0,a2
        00102af8 fe ff 05 3c  	   lui        a1,0xfffe
        00102afc 24 10 47 00  	   and        v0,v0,a3
        00102b00 ff ff a5 34  	   ori        a1,a1,0xffff
        00102b04 24 10 48 00  	   and        v0,v0,t0
        00102b08 fd ff 04 3c  	   lui        a0,0xfffd
        00102b0c 24 10 43 00  	   and        v0,v0,v1
        00102b10 ff ff 84 34  	   ori        a0,a0,0xffff
        00102b14 24 10 45 00  	   and        v0,v0,a1
        00102b18 fb ff 03 3c  	   lui        v1,0xfffb
        00102b1c 24 10 44 00  	   and        v0,v0,a0
        00102b20 ff ff 63 34  	   ori        v1,v1,0xffff
        00102b24 24 10 43 00  	   and        v0,v0,v1
        00102b28 78 00 04 3c  	   lui        a0,0x78
        00102b2c 7f ff 03 3c  	   lui        v1,0xff7f
        00102b30 25 10 44 00  	   or         v0,v0,a0
        00102b34 ff ff 63 34  	   ori        v1,v1,0xffff
        00102b38 ff 00 05 3c  	   lui        a1,0xff
        00102b3c 30 00 06 3c  	   lui        a2,0x30
        00102b40 24 10 43 00  	   and        v0,v0,v1
        00102b44 18 dc c6 24  	   addiu      a2=>DAT_002fdc18,a2,-0x23e8
        00102b48 ff ff a5 34  	   ori        a1,a1,0xffff
        00102b4c 00 60 80 44  	   clear      f12
        00102b50 20 00 04 26  	   addiu      a0,s0,0x20
        00102b54 00 00 05 ae  	   sw         a1,0x0(s0)
        00102b58 08 00 06 ae  	   sw         a2=>DAT_002fdc18,0x8(s0)
        00102b5c 0c 00 02 ae  	   sw         v0,0xc(s0)
        00102b60 36 26 08 0c  	   jal        FUN_002098d8                                     undefined8 FUN_002098d8(uint par
        00102b64 04 00 00 ae  	   _sw        zero,0x4(s0)
        00102b68 00 3f 01 3c  	   lui        at,0x3f00
        00102b6c 00 00 81 44  	   mtc1       at,f0
        00102b70 2d 10 00 02  	   move       v0,s0
        00102b74 3c 00 00 ae  	   sw         zero,0x3c(s0)
        00102b78 24 00 00 e6  	   swc1       f0,0x24(s0)
        00102b7c 40 00 00 ae  	   sw         zero,0x40(s0)
        00102b80 28 10 00 10  	   beq        zero,zero,LAB_00106c24
        00102b84 44 00 00 ae  	   _sw        zero,0x44(s0)
                             LAB_00102b88                                    XREF[1]:     002ec838(*)  
        00102b88 3c 07 06 0c  	   jal        MemoryAllocate                                   void * MemoryAllocate(uint memor
        00102b8c 14 00 04 24  	   _li        a0,0x14
        00102b90 2d 18 40 00  	   move       v1,v0
        00102b94 fe ff 06 3c  	   lui        a2,0xfffe
        00102b98 ff 00 02 24  	   li         v0,0xff
        00102b9c ff 00 04 3c  	   lui        a0,0xff
        00102ba0 0d 00 62 a0  	   sb         v0,0xd(v1)
        00102ba4 ff ff c6 34  	   ori        a2,a2,0xffff
        00102ba8 0c 00 62 a0  	   sb         v0,0xc(v1)
        00102bac ff ff 84 34  	   ori        a0,a0,0xffff
        00102bb0 30 00 02 3c  	   lui        v0,0x30
        00102bb4 80 bf 01 3c  	   lui        at,0xbf80
        00102bb8 00 00 81 44  	   mtc1       at,f0
        00102bbc 0c 00 65 8c  	   lw         a1,0xc(v1)
        00102bc0 58 da 42 24  	   addiu      v0,v0,-0x25a8
        00102bc4 08 00 62 ac  	   sw         v0=>DAT_002fda58,0x8(v1)
        00102bc8 24 28 a6 00  	   and        a1,a1,a2
        00102bcc 00 00 64 ac  	   sw         a0,0x0(v1)
        00102bd0 2d 10 60 00  	   move       v0,v1
        00102bd4 b4 09 00 10  	   beq        zero,zero,LAB_001052a8
        00102bd8 0c 00 65 ac  	   _sw        a1,0xc(v1)
                             LAB_00102bdc                                    XREF[1]:     002ec814(*)  
        00102bdc 3c 07 06 0c  	   jal        MemoryAllocate                                   void * MemoryAllocate(uint memor
        00102be0 14 00 04 24  	   _li        a0,0x14
        00102be4 2d 18 40 00  	   move       v1,v0
        00102be8 ff 00 04 3c  	   lui        a0,0xff
        00102bec 10 00 65 8c  	   lw         a1,0x10(v1)
        00102bf0 30 00 02 3c  	   lui        v0,0x30
        00102bf4 d8 da 42 24  	   addiu      v0,v0,-0x2528
        00102bf8 ff ff 84 34  	   ori        a0,a0,0xffff
        00102bfc 01 00 a5 34  	   ori        a1,a1,0x1
        00102c00 08 00 62 ac  	   sw         v0=>DAT_002fdad8,0x8(v1)
        00102c04 00 00 64 ac  	   sw         a0,0x0(v1)
        00102c08 2d 10 60 00  	   move       v0,v1
        00102c0c 10 00 65 ac  	   sw         a1,0x10(v1)
        00102c10 04 00 60 ac  	   sw         zero,0x4(v1)
        00102c14 03 10 00 10  	   beq        zero,zero,LAB_00106c24
        00102c18 0c 00 60 ac  	   _sw        zero,0xc(v1)
                             LAB_00102c1c                                    XREF[1]:     002ec818(*)  
        00102c1c 3c 07 06 0c  	   jal        MemoryAllocate                                   void * MemoryAllocate(uint memor
        00102c20 0c 00 04 24  	   _li        a0,0xc
        00102c24 ff 00 03 3c  	   lui        v1,0xff
        00102c28 30 00 04 3c  	   lui        a0,0x30
        00102c2c 2d 28 40 00  	   move       a1,v0
        00102c30 f6 0f 00 10  	   beq        zero,zero,LAB_00106c0c
        00102c34 98 da 84 24  	   _addiu     a0,a0,-0x2568
                             LAB_00102c38                                    XREF[1]:     002ec83c(*)  
        00102c38 3c 07 06 0c  	   jal        MemoryAllocate                                   void * MemoryAllocate(uint memor
        00102c3c 0c 00 04 24  	   _li        a0,0xc
        00102c40 ff 00 03 3c  	   lui        v1,0xff
        00102c44 30 00 04 3c  	   lui        a0,0x30
        00102c48 2d 28 40 00  	   move       a1,v0
        00102c4c ef 0f 00 10  	   beq        zero,zero,LAB_00106c0c
        00102c50 18 da 84 24  	   _addiu     a0,a0,-0x25e8
                             LAB_00102c54                                    XREF[1]:     002ec840(*)  
        00102c54 3c 07 06 0c  	   jal        MemoryAllocate                                   void * MemoryAllocate(uint memor
        00102c58 0c 00 04 24  	   _li        a0,0xc
        00102c5c ff 00 03 3c  	   lui        v1,0xff
        00102c60 30 00 04 3c  	   lui        a0,0x30
        00102c64 2d 28 40 00  	   move       a1,v0
        00102c68 e8 0f 00 10  	   beq        zero,zero,LAB_00106c0c
        00102c6c d8 d9 84 24  	   _addiu     a0,a0,-0x2628
                             LAB_00102c70                                    XREF[1]:     002ec88c(*)  
        00102c70 3c 07 06 0c  	   jal        MemoryAllocate                                   void * MemoryAllocate(uint memor
        00102c74 18 00 04 24  	   _li        a0,0x18
        00102c78 2d 18 40 00  	   move       v1,v0
        00102c7c ff 00 05 3c  	   lui        a1,0xff
        00102c80 0c 00 66 8c  	   lw         a2,0xc(v1)
        00102c84 30 00 02 3c  	   lui        v0,0x30
        00102c88 98 d9 42 24  	   addiu      v0,v0,-0x2668
        00102c8c fe ff 04 24  	   li         a0,-0x2
        00102c90 80 3f 01 3c  	   lui        at,0x3f80
        00102c94 00 00 81 44  	   mtc1       at,f0
        00102c98 24 30 c4 00  	   and        a2,a2,a0
        00102c9c ff ff a5 34  	   ori        a1,a1,0xffff
        00102ca0 08 00 62 ac  	   sw         v0=>DAT_002fd998,0x8(v1)
        00102ca4 00 00 65 ac  	   sw         a1,0x0(v1)
        00102ca8 7e 09 00 10  	   beq        zero,zero,LAB_001052a4
        00102cac 2d 10 60 00  	   _move      v0,v1
                             LAB_00102cb0                                    XREF[1]:     002ec688(*)  
        00102cb0 3c 07 06 0c  	   jal        MemoryAllocate                                   void * MemoryAllocate(uint memor
        00102cb4 28 00 04 24  	   _li        a0,0x28
        00102cb8 2d 20 40 00  	   move       a0,v0
        00102cbc ff fe 07 24  	   li         a3,-0x101
        00102cc0 ff 00 02 24  	   li         v0,0xff
        00102cc4 ff fd 05 24  	   li         a1,-0x201
        00102cc8 0c 00 82 a0  	   sb         v0,0xc(a0)
        00102ccc ff 00 03 3c  	   lui        v1,0xff
        00102cd0 30 00 06 3c  	   lui        a2,0x30
        00102cd4 ff ff 63 34  	   ori        v1,v1,0xffff
        00102cd8 0c 00 82 8c  	   lw         v0,0xc(a0)
        00102cdc 18 db c6 24  	   addiu      a2,a2,-0x24e8
        00102ce0 80 3f 01 3c  	   lui        at,0x3f80
        00102ce4 00 00 81 44  	   mtc1       at,f0
        00102ce8 24 10 47 00  	   and        v0,v0,a3
        00102cec 00 00 83 ac  	   sw         v1,0x0(a0)
        00102cf0 24 10 45 00  	   and        v0,v0,a1
        00102cf4 08 00 86 ac  	   sw         a2=>DAT_002fdb18,0x8(a0)
        00102cf8 0c 00 82 ac  	   sw         v0,0xc(a0)
        00102cfc 0c 00 85 24  	   addiu      a1,a0,0xc
        00102d00 04 00 80 ac  	   sw         zero,0x4(a0)
        00102d04 fe ff 06 24  	   li         a2,-0x2
        00102d08 0c 00 a0 e4  	   swc1       f0,0xc(a1)
        00102d0c 2d 10 80 00  	   move       v0,a0
        00102d10 04 00 a0 ac  	   sw         zero,0x4(a1)
        00102d14 08 00 a0 ac  	   sw         zero,0x8(a1)
        00102d18 24 00 83 8c  	   lw         v1,0x24(a0)
        00102d1c 24 18 66 00  	   and        v1,v1,a2
        00102d20 c0 0f 00 10  	   beq        zero,zero,LAB_00106c24
        00102d24 24 00 83 ac  	   _sw        v1,0x24(a0)
                             LAB_00102d28                                    XREF[1]:     002ec690(*)  
        00102d28 3c 07 06 0c  	   jal        MemoryAllocate                                   void * MemoryAllocate(uint memor
        00102d2c 20 00 04 24  	   _li        a0,0x20
        00102d30 2d 18 40 00  	   move       v1,v0
        00102d34 ff 8f 06 24  	   li         a2,-0x7001
        00102d38 10 00 60 a0  	   sb         zero,0x10(v1)
        00102d3c ff 00 04 3c  	   lui        a0,0xff
        00102d40 30 00 05 3c  	   lui        a1,0x30
        00102d44 00 3f 01 3c  	   lui        at,0x3f00
        00102d48 00 00 81 44  	   mtc1       at,f0
        00102d4c 10 00 62 8c  	   lw         v0,0x10(v1)
        00102d50 d8 db a5 24  	   addiu      a1=>DAT_002fdbd8,a1,-0x2428
        00102d54 40 40 01 3c  	   lui        at,0x4040
        00102d58 00 08 81 44  	   mtc1       at,f1
        00102d5c ff ff 84 34  	   ori        a0,a0,0xffff
        00102d60 00 0f 42 34  	   ori        v0,v0,0xf00
        00102d64 00 00 64 ac  	   sw         a0,0x0(v1)
        00102d68 24 10 46 00  	   and        v0,v0,a2
        00102d6c 08 00 65 ac  	   sw         a1=>DAT_002fdbd8,0x8(v1)
        00102d70 00 80 42 34  	   ori        v0,v0,0x8000
        00102d74 14 00 60 e4  	   swc1       f0,0x14(v1)
        00102d78 10 00 62 ac  	   sw         v0,0x10(v1)
        00102d7c 2d 10 60 00  	   move       v0,v1
        00102d80 18 00 61 e4  	   swc1       f1,0x18(v1)
        00102d84 04 00 60 ac  	   sw         zero,0x4(v1)
        00102d88 0c 00 60 ac  	   sw         zero,0xc(v1)
        00102d8c a5 0f 00 10  	   beq        zero,zero,LAB_00106c24
        00102d90 1c 00 60 ac  	   _sw        zero,0x1c(v1)
                             LAB_00102d94                                    XREF[1]:     002ec694(*)  
        00102d94 3c 07 06 0c  	   jal        MemoryAllocate                                   void * MemoryAllocate(uint memor
        00102d98 10 00 04 24  	   _li        a0,0x10
        00102d9c ff 00 04 3c  	   lui        a0,0xff
        00102da0 30 00 05 3c  	   lui        a1,0x30
        00102da4 40 40 01 3c  	   lui        at,0x4040
        00102da8 00 00 81 44  	   mtc1       at,f0
        00102dac 2d 18 40 00  	   move       v1,v0
        00102db0 2d 0b 00 10  	   beq        zero,zero,LAB_00105a68
        00102db4 98 db a5 24  	   _addiu     a1=>DAT_002fdb98,a1,-0x2468
                             LAB_00102db8                                    XREF[1]:     002ec7f0(*)  
        00102db8 3c 07 06 0c  	   jal        MemoryAllocate                                   void * MemoryAllocate(uint memor
        00102dbc 14 00 04 24  	   _li        a0,0x14
        00102dc0 2d 18 40 00  	   move       v1,v0
        00102dc4 ff 00 05 3c  	   lui        a1,0xff
        00102dc8 10 00 66 8c  	   lw         a2,0x10(v1)
        00102dcc f8 ff 02 24  	   li         v0,-0x8
        00102dd0 30 00 04 3c  	   lui        a0,0x30
        00102dd4 40 40 01 3c  	   lui        at,0x4040
        00102dd8 00 00 81 44  	   mtc1       at,f0
        00102ddc 24 30 c2 00  	   and        a2,a2,v0
        00102de0 58 db 84 24  	   addiu      a0,a0,-0x24a8
        00102de4 ff ff a5 34  	   ori        a1,a1,0xffff
        00102de8 08 00 64 ac  	   sw         a0=>DAT_002fdb58,0x8(v1)
        00102dec 00 00 65 ac  	   sw         a1,0x0(v1)
        00102df0 2d 10 60 00  	   move       v0,v1
        00102df4 0c 00 60 e4  	   swc1       f0,0xc(v1)
        00102df8 10 00 66 ac  	   sw         a2,0x10(v1)
        00102dfc 89 0f 00 10  	   beq        zero,zero,LAB_00106c24
        00102e00 04 00 60 ac  	   _sw        zero,0x4(v1)
                             LAB_00102e04                                    XREF[1]:     002ec560(*)  
        00102e04 3c 07 06 0c  	   jal        MemoryAllocate                                   void * MemoryAllocate(uint memor
        00102e08 94 00 04 24  	   _li        a0,0x94
        00102e0c 30 00 04 3c  	   lui        a0,0x30
        00102e10 2d 80 40 00  	   move       s0,v0
        00102e14 d8 e2 84 24  	   addiu      a0,a0,-0x1d28
        00102e18 ff 00 03 3c  	   lui        v1,0xff
        00102e1c ff ff 63 34  	   ori        v1,v1,0xffff
        00102e20 08 00 04 ae  	   sw         a0=>DAT_002fe2d8,0x8(s0)
        00102e24 00 00 03 ae  	   sw         v1,0x0(s0)
        00102e28 0c 00 04 26  	   addiu      a0,s0,0xc
        00102e2c 04 00 00 ae  	   sw         zero,0x4(s0)
        00102e30 2d 28 00 00  	   move       a1,zero
        00102e34 7d 0e 00 10  	   beq        zero,zero,LAB_0010682c
        00102e38 2d 30 00 00  	   _move      a2,zero
                             LAB_00102e3c                                    XREF[1]:     002ec68c(*)  
        00102e3c 3c 07 06 0c  	   jal        MemoryAllocate                                   void * MemoryAllocate(uint memor
        00102e40 1c 00 04 24  	   _li        a0,0x1c
        00102e44 2d 20 40 00  	   move       a0,v0
        00102e48 fe ff 07 24  	   li         a3,-0x2
        00102e4c 18 00 83 8c  	   lw         v1,0x18(a0)
        00102e50 fd ff 08 24  	   li         t0,-0x3
        00102e54 ff 00 02 3c  	   lui        v0,0xff
        00102e58 30 00 05 3c  	   lui        a1,0x30
        00102e5c 24 18 67 00  	   and        v1,v1,a3
        00102e60 ff ff 42 34  	   ori        v0,v0,0xffff
        00102e64 fb ff 06 24  	   li         a2,-0x5
        00102e68 24 18 68 00  	   and        v1,v1,t0
        00102e6c 1c 00 00 10  	   beq        zero,zero,LAB_00102ee0
        00102e70 98 e2 a5 24  	   _addiu     a1=>DAT_002fe298,a1,-0x1d68
                             LAB_00102e74                                    XREF[1]:     002ec790(*)  
        00102e74 3c 07 06 0c  	   jal        MemoryAllocate                                   void * MemoryAllocate(uint memor
        00102e78 1c 00 04 24  	   _li        a0,0x1c
        00102e7c 2d 20 40 00  	   move       a0,v0
        00102e80 fe ff 07 24  	   li         a3,-0x2
        00102e84 18 00 83 8c  	   lw         v1,0x18(a0)
        00102e88 fd ff 08 24  	   li         t0,-0x3
        00102e8c ff 00 02 3c  	   lui        v0,0xff
        00102e90 30 00 05 3c  	   lui        a1,0x30
        00102e94 24 18 67 00  	   and        v1,v1,a3
        00102e98 ff ff 42 34  	   ori        v0,v0,0xffff
        00102e9c fb ff 06 24  	   li         a2,-0x5
        00102ea0 24 18 68 00  	   and        v1,v1,t0
        00102ea4 0e 00 00 10  	   beq        zero,zero,LAB_00102ee0
        00102ea8 58 e2 a5 24  	   _addiu     a1=>DAT_002fe258,a1,-0x1da8
                             LAB_00102eac                                    XREF[1]:     002ec780(*)  
        00102eac 3c 07 06 0c  	   jal        MemoryAllocate                                   void * MemoryAllocate(uint memor
        00102eb0 1c 00 04 24  	   _li        a0,0x1c
        00102eb4 2d 20 40 00  	   move       a0,v0
        00102eb8 fe ff 07 24  	   li         a3,-0x2
        00102ebc 18 00 83 8c  	   lw         v1,0x18(a0)
        00102ec0 fd ff 08 24  	   li         t0,-0x3
        00102ec4 ff 00 02 3c  	   lui        v0,0xff
        00102ec8 30 00 05 3c  	   lui        a1,0x30
        00102ecc 24 18 67 00  	   and        v1,v1,a3
        00102ed0 ff ff 42 34  	   ori        v0,v0,0xffff
        00102ed4 fb ff 06 24  	   li         a2,-0x5
        00102ed8 24 18 68 00  	   and        v1,v1,t0
        00102edc 18 e2 a5 24  	   addiu      a1=>DAT_002fe218,a1,-0x1de8
                             LAB_00102ee0                                    XREF[2]:     00102e6c(j), 00102ea4(j)  
        00102ee0 24 18 66 00  	   and        v1,v1,a2
        00102ee4 00 00 82 ac  	   sw         v0,0x0(a0)
        00102ee8 2d 10 80 00  	   move       v0,a0
        00102eec 08 00 85 ac  	   sw         a1=>DAT_002fe218,0x8(a0)
        00102ef0 18 00 83 ac  	   sw         v1,0x18(a0)
        00102ef4 04 00 80 ac  	   sw         zero,0x4(a0)
        00102ef8 0c 00 80 ac  	   sw         zero,0xc(a0)
        00102efc 10 00 80 ac  	   sw         zero,0x10(a0)
        00102f00 48 0f 00 10  	   beq        zero,zero,LAB_00106c24
        00102f04 14 00 80 ac  	   _sw        zero,0x14(a0)
                             LAB_00102f08                                    XREF[1]:     002ec564(*)  
        00102f08 3c 07 06 0c  	   jal        MemoryAllocate                                   void * MemoryAllocate(uint memor
        00102f0c 0c 00 04 24  	   _li        a0,0xc
        00102f10 ff 00 03 3c  	   lui        v1,0xff
        00102f14 30 00 04 3c  	   lui        a0,0x30
        00102f18 2d 28 40 00  	   move       a1,v0
        00102f1c 3b 0f 00 10  	   beq        zero,zero,LAB_00106c0c
        00102f20 d8 e1 84 24  	   _addiu     a0,a0,-0x1e28
                             LAB_00102f24                                    XREF[1]:     002ec59c(*)  
        00102f24 3c 07 06 0c  	   jal        MemoryAllocate                                   void * MemoryAllocate(uint memor
        00102f28 10 00 04 24  	   _li        a0,0x10
        00102f2c 5c 84 08 0c  	   jal        FUN_00221170                                     undefined8 FUN_00221170(undefine
        00102f30 2d 20 40 00  	   _move      a0,v0
        00102f34 3c 0f 00 10  	   beq        zero,zero,LAB_00106c28
        00102f38 30 00 b0 df  	   _ld        s0,0x30(sp)
                             LAB_00102f3c                                    XREF[1]:     002ec6d4(*)  
        00102f3c 3c 07 06 0c  	   jal        MemoryAllocate                                   void * MemoryAllocate(uint memor
        00102f40 20 00 04 24  	   _li        a0,0x20
        00102f44 2d 20 40 00  	   move       a0,v0
        00102f48 30 00 03 3c  	   lui        v1,0x30
        00102f4c ff 00 02 24  	   li         v0,0xff
        00102f50 d8 e9 63 24  	   addiu      v1,v1,-0x1628
        00102f54 0d 00 82 a0  	   sb         v0,0xd(a0)
        00102f58 f0 ff 05 34  	   ori        a1,zero,0xfff0
        00102f5c 38 2c 05 00  	   dsll       a1,a1,0x10
        00102f60 ff ff a5 34  	   ori        a1,a1,0xffff
        00102f64 38 2c 05 00  	   dsll       a1,a1,0x10
        00102f68 ff ff a5 34  	   ori        a1,a1,0xffff
        00102f6c 38 2c 05 00  	   dsll       a1,a1,0x10
        00102f70 ff ff a5 34  	   ori        a1,a1,0xffff
        00102f74 0c 00 82 a0  	   sb         v0,0xc(a0)
        00102f78 ef ff 06 34  	   ori        a2,zero,0xffef
        00102f7c 38 34 06 00  	   dsll       a2,a2,0x10
        00102f80 ff ff c6 34  	   ori        a2,a2,0xffff
        00102f84 38 34 06 00  	   dsll       a2,a2,0x10
        00102f88 ff ff c6 34  	   ori        a2,a2,0xffff
        00102f8c 38 34 06 00  	   dsll       a2,a2,0x10
        00102f90 ff ff c6 34  	   ori        a2,a2,0xffff
        00102f94 08 00 83 ac  	   sw         v1=>DAT_002fe9d8,0x8(a0)
        00102f98 df ff 07 34  	   ori        a3,zero,0xffdf
        00102f9c 38 3c 07 00  	   dsll       a3,a3,0x10
        00102fa0 ff ff e7 34  	   ori        a3,a3,0xffff
        00102fa4 38 3c 07 00  	   dsll       a3,a3,0x10
        00102fa8 ff ff e7 34  	   ori        a3,a3,0xffff
        00102fac 38 3c 07 00  	   dsll       a3,a3,0x10
        00102fb0 ff ff e7 34  	   ori        a3,a3,0xffff
        00102fb4 bf ff 09 34  	   ori        t1,zero,0xffbf
        00102fb8 38 4c 09 00  	   dsll       t1,t1,0x10
        00102fbc ff ff 29 35  	   ori        t1,t1,0xffff
        00102fc0 38 4c 09 00  	   dsll       t1,t1,0x10
        00102fc4 ff ff 29 35  	   ori        t1,t1,0xffff
        00102fc8 38 4c 09 00  	   dsll       t1,t1,0x10
        00102fcc ff ff 29 35  	   ori        t1,t1,0xffff
        00102fd0 00 80 0b 34  	   ori        t3,zero,0x8000
        00102fd4 fc 59 0b 00  	   dsll32     t3,t3,0x7
        00102fd8 08 00 83 dc  	   ld         v1,0x8(a0)
        00102fdc 7f ff 0a 34  	   ori        t2,zero,0xff7f
        00102fe0 38 54 0a 00  	   dsll       t2,t2,0x10
        00102fe4 ff ff 4a 35  	   ori        t2,t2,0xffff
        00102fe8 38 54 0a 00  	   dsll       t2,t2,0x10
        00102fec ff ff 4a 35  	   ori        t2,t2,0xffff
        00102ff0 38 54 0a 00  	   dsll       t2,t2,0x10
        00102ff4 ff ff 4a 35  	   ori        t2,t2,0xffff
        00102ff8 ff 00 02 3c  	   lui        v0,0xff
        00102ffc ff fe 08 34  	   ori        t0,zero,0xfeff
        00103000 38 44 08 00  	   dsll       t0,t0,0x10
        00103004 ff ff 08 35  	   ori        t0,t0,0xffff
        00103008 38 44 08 00  	   dsll       t0,t0,0x10
        0010300c ff ff 08 35  	   ori        t0,t0,0xffff
        00103010 38 44 08 00  	   dsll       t0,t0,0x10
        00103014 ff ff 08 35  	   ori        t0,t0,0xffff
        00103018 24 18 65 00  	   and        v1,v1,a1
        0010301c ff ff 42 34  	   ori        v0,v0,0xffff
        00103020 24 18 66 00  	   and        v1,v1,a2
        00103024 00 00 82 ac  	   sw         v0,0x0(a0)
        00103028 24 18 67 00  	   and        v1,v1,a3
        0010302c 2d 10 80 00  	   move       v0,a0
        00103030 24 18 69 00  	   and        v1,v1,t1
        00103034 04 00 80 ac  	   sw         zero,0x4(a0)
        00103038 25 18 6b 00  	   or         v1,v1,t3
        0010303c 24 18 6a 00  	   and        v1,v1,t2
        00103040 24 18 68 00  	   and        v1,v1,t0
        00103044 f7 0e 00 10  	   beq        zero,zero,LAB_00106c24
        00103048 08 00 83 fc  	   _sd        v1,0x8(a0)
                             LAB_0010304c                                    XREF[1]:     002ec7fc(*)  
        0010304c 3c 07 06 0c  	   jal        MemoryAllocate                                   void * MemoryAllocate(uint memor
        00103050 30 00 04 24  	   _li        a0,0x30
        00103054 30 00 03 3c  	   lui        v1,0x30
        00103058 2d 20 40 00  	   move       a0,v0
        0010305c ff 00 05 24  	   li         a1,0xff
        00103060 98 e9 63 24  	   addiu      v1,v1,-0x1668
        00103064 08 00 83 ac  	   sw         v1=>DAT_002fe998,0x8(a0)
        00103068 f0 ff 06 34  	   ori        a2,zero,0xfff0
        0010306c 38 34 06 00  	   dsll       a2,a2,0x10
        00103070 ff ff c6 34  	   ori        a2,a2,0xffff
        00103074 38 34 06 00  	   dsll       a2,a2,0x10
        00103078 ff ff c6 34  	   ori        a2,a2,0xffff
        0010307c 38 34 06 00  	   dsll       a2,a2,0x10
        00103080 ff ff c6 34  	   ori        a2,a2,0xffff
        00103084 0c 00 85 a0  	   sb         a1,0xc(a0)
        00103088 ef ff 07 34  	   ori        a3,zero,0xffef
        0010308c 38 3c 07 00  	   dsll       a3,a3,0x10
        00103090 ff ff e7 34  	   ori        a3,a3,0xffff
        00103094 38 3c 07 00  	   dsll       a3,a3,0x10
        00103098 ff ff e7 34  	   ori        a3,a3,0xffff
        0010309c 38 3c 07 00  	   dsll       a3,a3,0x10
        001030a0 ff ff e7 34  	   ori        a3,a3,0xffff
        001030a4 0d 00 85 a0  	   sb         a1,0xd(a0)
        001030a8 df ff 08 34  	   ori        t0,zero,0xffdf
        001030ac 38 44 08 00  	   dsll       t0,t0,0x10
        001030b0 ff ff 08 35  	   ori        t0,t0,0xffff
        001030b4 38 44 08 00  	   dsll       t0,t0,0x10
        001030b8 ff ff 08 35  	   ori        t0,t0,0xffff
        001030bc 38 44 08 00  	   dsll       t0,t0,0x10
        001030c0 ff ff 08 35  	   ori        t0,t0,0xffff
        001030c4 bf ff 09 34  	   ori        t1,zero,0xffbf
        001030c8 38 4c 09 00  	   dsll       t1,t1,0x10
        001030cc ff ff 29 35  	   ori        t1,t1,0xffff
        001030d0 38 4c 09 00  	   dsll       t1,t1,0x10
        001030d4 ff ff 29 35  	   ori        t1,t1,0xffff
        001030d8 38 4c 09 00  	   dsll       t1,t1,0x10
        001030dc ff ff 29 35  	   ori        t1,t1,0xffff
        001030e0 00 80 0b 34  	   ori        t3,zero,0x8000
        001030e4 fc 59 0b 00  	   dsll32     t3,t3,0x7
        001030e8 08 00 83 dc  	   ld         v1,0x8(a0)
        001030ec 7f ff 0a 34  	   ori        t2,zero,0xff7f
        001030f0 38 54 0a 00  	   dsll       t2,t2,0x10
        001030f4 ff ff 4a 35  	   ori        t2,t2,0xffff
        001030f8 38 54 0a 00  	   dsll       t2,t2,0x10
        001030fc ff ff 4a 35  	   ori        t2,t2,0xffff
        00103100 38 54 0a 00  	   dsll       t2,t2,0x10
        00103104 ff ff 4a 35  	   ori        t2,t2,0xffff
        00103108 ff 00 02 3c  	   lui        v0,0xff
        0010310c 10 00 85 a0  	   sb         a1,0x10(a0)
        00103110 24 18 66 00  	   and        v1,v1,a2
        00103114 ff ff 42 34  	   ori        v0,v0,0xffff
        00103118 24 18 67 00  	   and        v1,v1,a3
        0010311c 00 00 82 ac  	   sw         v0,0x0(a0)
        00103120 24 18 68 00  	   and        v1,v1,t0
        00103124 2d 10 80 00  	   move       v0,a0
        00103128 24 18 69 00  	   and        v1,v1,t1
        0010312c 04 00 80 ac  	   sw         zero,0x4(a0)
        00103130 25 18 6b 00  	   or         v1,v1,t3
                             LAB_00103134                                    XREF[1]:     00101cb4(j)  
        00103134 24 18 6a 00  	   and        v1,v1,t2
        00103138 08 00 83 fc  	   sd         v1,0x8(a0)
        0010313c b9 0e 00 10  	   beq        zero,zero,LAB_00106c24
        00103140 0f 00 85 a0  	   _sb        a1,0xf(a0)
                             LAB_00103144                                    XREF[1]:     002ec568(*)  
        00103144 3c 07 06 0c  	   jal        MemoryAllocate                                   void * MemoryAllocate(uint memor
        00103148 10 00 04 24  	   _li        a0,0x10
        0010314c ff 00 03 3c  	   lui        v1,0xff
        00103150 30 00 04 3c  	   lui        a0,0x30
        00103154 2d 28 40 00  	   move       a1,v0
        00103158 2c 0e 00 10  	   beq        zero,zero,LAB_00106a0c
        0010315c 98 eb 84 24  	   _addiu     a0,a0,-0x1468
                             LAB_00103160                                    XREF[1]:     002ec56c(*)  
        00103160 3c 07 06 0c  	   jal        MemoryAllocate                                   void * MemoryAllocate(uint memor
        00103164 10 00 04 24  	   _li        a0,0x10
        00103168 ff 00 03 3c  	   lui        v1,0xff
        0010316c 30 00 04 3c  	   lui        a0,0x30
        00103170 2d 28 40 00  	   move       a1,v0
        00103174 25 0e 00 10  	   beq        zero,zero,LAB_00106a0c
        00103178 58 eb 84 24  	   _addiu     a0,a0,-0x14a8
                             LAB_0010317c                                    XREF[1]:     002ec570(*)  
        0010317c 3c 07 06 0c  	   jal        MemoryAllocate                                   void * MemoryAllocate(uint memor
        00103180 10 00 04 24  	   _li        a0,0x10
        00103184 ff 00 03 3c  	   lui        v1,0xff
        00103188 30 00 04 3c  	   lui        a0,0x30
        0010318c 2d 28 40 00  	   move       a1,v0
        00103190 1e 0e 00 10  	   beq        zero,zero,LAB_00106a0c
        00103194 18 eb 84 24  	   _addiu     a0,a0,-0x14e8
                             LAB_00103198                                    XREF[1]:     002ec574(*)  
        00103198 3c 07 06 0c  	   jal        MemoryAllocate                                   void * MemoryAllocate(uint memor
        0010319c 10 00 04 24  	   _li        a0,0x10
        001031a0 ff 00 03 3c  	   lui        v1,0xff
        001031a4 30 00 04 3c  	   lui        a0,0x30
        001031a8 2d 28 40 00  	   move       a1,v0
        001031ac 17 0e 00 10  	   beq        zero,zero,LAB_00106a0c
        001031b0 d8 ea 84 24  	   _addiu     a0,a0,-0x1528
                             LAB_001031b4                                    XREF[1]:     002ec578(*)  
        001031b4 3c 07 06 0c  	   jal        MemoryAllocate                                   void * MemoryAllocate(uint memor
        001031b8 10 00 04 24  	   _li        a0,0x10
        001031bc ff 00 03 3c  	   lui        v1,0xff
        001031c0 30 00 04 3c  	   lui        a0,0x30
        001031c4 2d 28 40 00  	   move       a1,v0
        001031c8 10 0e 00 10  	   beq        zero,zero,LAB_00106a0c
        001031cc 98 ea 84 24  	   _addiu     a0,a0,-0x1568
                             LAB_001031d0                                    XREF[1]:     002ec57c(*)  
        001031d0 3c 07 06 0c  	   jal        MemoryAllocate                                   void * MemoryAllocate(uint memor
        001031d4 10 00 04 24  	   _li        a0,0x10
        001031d8 ff 00 03 3c  	   lui        v1,0xff
        001031dc 30 00 04 3c  	   lui        a0,0x30
        001031e0 2d 28 40 00  	   move       a1,v0
        001031e4 09 0e 00 10  	   beq        zero,zero,LAB_00106a0c
        001031e8 98 ea 84 24  	   _addiu     a0,a0,-0x1568
                             LAB_001031ec                                    XREF[1]:     002ec6f4(*)  
        001031ec 3c 07 06 0c  	   jal        MemoryAllocate                                   void * MemoryAllocate(uint memor
        001031f0 1c 00 04 24  	   _li        a0,0x1c
        001031f4 ff 00 03 3c  	   lui        v1,0xff
        001031f8 30 00 04 3c  	   lui        a0,0x30
        001031fc 2d 28 40 00  	   move       a1,v0
        00103200 82 0e 00 10  	   beq        zero,zero,LAB_00106c0c
        00103204 d8 e8 84 24  	   _addiu     a0,a0,-0x1728
                             LAB_00103208                                    XREF[1]:     002ec788(*)  
        00103208 3c 07 06 0c  	   jal        MemoryAllocate                                   void * MemoryAllocate(uint memor
        0010320c 18 00 04 24  	   _li        a0,0x18
        00103210 2d 20 40 00  	   move       a0,v0
        00103214 ff f0 06 24  	   li         a2,-0xf01
        00103218 ff 00 02 24  	   li         v0,0xff
        0010321c 30 00 05 3c  	   lui        a1,0x30
        00103220 0c 00 82 a0  	   sb         v0,0xc(a0)
        00103224 ff ef 07 24  	   li         a3,-0x1001
        00103228 ff 00 02 3c  	   lui        v0,0xff
        0010322c 98 e8 a5 24  	   addiu      a1=>DAT_002fe898,a1,-0x1768
        00103230 0c 00 83 8c  	   lw         v1,0xc(a0)
        00103234 ff ff 42 34  	   ori        v0,v0,0xffff
        00103238 00 00 82 ac  	   sw         v0,0x0(a0)
        0010323c 24 18 66 00  	   and        v1,v1,a2
        00103240 08 00 85 ac  	   sw         a1=>DAT_002fe898,0x8(a0)
        00103244 00 02 63 34  	   ori        v1,v1,0x200
        00103248 2d 10 80 00  	   move       v0,a0
        0010324c 24 18 67 00  	   and        v1,v1,a3
        00103250 04 00 80 ac  	   sw         zero,0x4(a0)
        00103254 0c 00 83 ac  	   sw         v1,0xc(a0)
        00103258 10 00 80 ac  	   sw         zero,0x10(a0)
        0010325c 71 0e 00 10  	   beq        zero,zero,LAB_00106c24
        00103260 14 00 80 ac  	   _sw        zero,0x14(a0)
                             LAB_00103264                                    XREF[1]:     002ec794(*)  
        00103264 3c 07 06 0c  	   jal        MemoryAllocate                                   void * MemoryAllocate(uint memor
        00103268 20 00 04 24  	   _li        a0,0x20
        0010326c ff 00 04 3c  	   lui        a0,0xff
        00103270 30 00 05 3c  	   lui        a1,0x30
        00103274 2d 18 40 00  	   move       v1,v0
        00103278 58 e8 a5 24  	   addiu      a1=>DAT_002fe858,a1,-0x17a8
        0010327c ff ff 84 34  	   ori        a0,a0,0xffff
        00103280 ff 00 06 24  	   li         a2,0xff
        00103284 00 00 64 ac  	   sw         a0,0x0(v1)
        00103288 08 00 65 ac  	   sw         a1=>DAT_002fe858,0x8(v1)
        0010328c 0c 00 66 a0  	   sb         a2,0xc(v1)
        00103290 04 00 60 ac  	   sw         zero,0x4(v1)
        00103294 10 00 60 ac  	   sw         zero,0x10(v1)
        00103298 14 00 60 ac  	   sw         zero,0x14(v1)
        0010329c 18 00 60 ac  	   sw         zero,0x18(v1)
        001032a0 60 0e 00 10  	   beq        zero,zero,LAB_00106c24
        001032a4 1c 00 60 ac  	   _sw        zero,0x1c(v1)
                             LAB_001032a8                                    XREF[1]:     002ec5b4(*)  
        001032a8 3c 07 06 0c  	   jal        MemoryAllocate                                   void * MemoryAllocate(uint memor
        001032ac 10 00 04 24  	   _li        a0,0x10
        001032b0 2d 18 40 00  	   move       v1,v0
        001032b4 30 00 04 3c  	   lui        a0,0x30
        001032b8 0c 00 66 8c  	   lw         a2,0xc(v1)
        001032bc ff 00 02 3c  	   lui        v0,0xff
        001032c0 ff ff 42 34  	   ori        v0,v0,0xffff
        001032c4 fe ff 05 24  	   li         a1,-0x2
        001032c8 18 e8 84 24  	   addiu      a0,a0,-0x17e8
        001032cc 24 30 c5 00  	   and        a2,a2,a1
        001032d0 00 00 62 ac  	   sw         v0,0x0(v1)
        001032d4 2d 10 60 00  	   move       v0,v1
        001032d8 55 0c 00 10  	   beq        zero,zero,LAB_00106430
        001032dc 08 00 64 ac  	   _sw        a0=>DAT_002fe818,0x8(v1)
                             LAB_001032e0                                    XREF[1]:     002ec728(*)  
        001032e0 3c 07 06 0c  	   jal        MemoryAllocate                                   void * MemoryAllocate(uint memor
        001032e4 0c 00 04 24  	   _li        a0,0xc
        001032e8 ff 00 03 3c  	   lui        v1,0xff
        001032ec 30 00 04 3c  	   lui        a0,0x30
        001032f0 2d 28 40 00  	   move       a1,v0
        001032f4 45 0e 00 10  	   beq        zero,zero,LAB_00106c0c
        001032f8 d8 e7 84 24  	   _addiu     a0,a0,-0x1828
                             LAB_001032fc                                    XREF[1]:     002ec84c(*)  
        001032fc 3c 07 06 0c  	   jal        MemoryAllocate                                   void * MemoryAllocate(uint memor
        00103300 20 00 04 24  	   _li        a0,0x20
        00103304 ff 00 03 3c  	   lui        v1,0xff
        00103308 30 00 04 3c  	   lui        a0,0x30
        0010330c 2d 28 40 00  	   move       a1,v0
        00103310 98 e7 84 24  	   addiu      a0,a0,-0x1868
        00103314 ff ff 63 34  	   ori        v1,v1,0xffff
        00103318 08 00 a4 ac  	   sw         a0=>DAT_002fe798,0x8(a1)
        0010331c 00 00 a3 ac  	   sw         v1,0x0(a1)
        00103320 04 00 a0 ac  	   sw         zero,0x4(a1)
        00103324 3f 0e 00 10  	   beq        zero,zero,LAB_00106c24
        00103328 1c 00 a0 a0  	   _sb        zero,0x1c(a1)
                             LAB_0010332c                                    XREF[1]:     002ec740(*)  
        0010332c 3c 07 06 0c  	   jal        MemoryAllocate                                   void * MemoryAllocate(uint memor
        00103330 10 00 04 24  	   _li        a0,0x10
        00103334 ff 00 04 3c  	   lui        a0,0xff
        00103338 30 00 05 3c  	   lui        a1,0x30
        0010333c 2d 18 40 00  	   move       v1,v0
        00103340 37 0c 00 10  	   beq        zero,zero,LAB_00106420
        00103344 58 e7 a5 24  	   _addiu     a1=>DAT_002fe758,a1,-0x18a8
                             LAB_00103348                                    XREF[1]:     002ec5b8(*)  
        00103348 3c 07 06 0c  	   jal        MemoryAllocate                                   void * MemoryAllocate(uint memor
        0010334c 10 00 04 24  	   _li        a0,0x10
        00103350 ff 00 03 3c  	   lui        v1,0xff
        00103354 30 00 04 3c  	   lui        a0,0x30
        00103358 2d 28 40 00  	   move       a1,v0
        0010335c 0e 0a 00 10  	   beq        zero,zero,LAB_00105b98
        00103360 98 e6 84 24  	   _addiu     a0,a0,-0x1968
                             LAB_00103364                                    XREF[1]:     002ec5bc(*)  
        00103364 3c 07 06 0c  	   jal        MemoryAllocate                                   void * MemoryAllocate(uint memor
        00103368 0c 00 04 24  	   _li        a0,0xc
        0010336c ff 00 03 3c  	   lui        v1,0xff
        00103370 30 00 04 3c  	   lui        a0,0x30
        00103374 2d 28 40 00  	   move       a1,v0
        00103378 24 0e 00 10  	   beq        zero,zero,LAB_00106c0c
        0010337c 58 e6 84 24  	   _addiu     a0,a0,-0x19a8
                             LAB_00103380                                    XREF[1]:     002ece48(*)  
        00103380 3c 07 06 0c  	   jal        MemoryAllocate                                   void * MemoryAllocate(uint memor
        00103384 4c 00 04 24  	   _li        a0,0x4c
        00103388 2d 38 40 00  	   move       a3,v0
        0010338c f8 ff 06 24  	   li         a2,-0x8
        00103390 0c 00 e5 8c  	   lw         a1,0xc(a3)
        00103394 ff 00 03 3c  	   lui        v1,0xff
        00103398 f7 ff 02 24  	   li         v0,-0x9
        0010339c ff ff 63 34  	   ori        v1,v1,0xffff
        001033a0 2f 00 04 3c  	   lui        a0,0x2f
        001033a4 24 28 a6 00  	   and        a1,a1,a2
        001033a8 00 00 e3 ac  	   sw         v1,0x0(a3)
        001033ac 24 28 a2 00  	   and        a1,a1,v0
        001033b0 80 3f 01 3c  	   lui        at,0x3f80
        001033b4 00 00 81 44  	   mtc1       at,f0
        001033b8 08 e7 84 24  	   addiu      a0,a0,-0x18f8
        001033bc 08 00 e4 ac  	   sw         a0=>DAT_002ee708,0x8(a3)
        001033c0 0c 00 e2 24  	   addiu      v0,a3,0xc
        001033c4 0c 00 e5 ac  	   sw         a1,0xc(a3)
        001033c8 02 00 03 24  	   li         v1,0x2
        001033cc 04 00 e0 ac  	   sw         zero,0x4(a3)
        001033d0 ff ff 08 34  	   ori        t0,zero,0xffff
        001033d4 3c 00 40 e4  	   swc1       f0,0x3c(v0)
        001033d8 2d 28 00 00  	   move       a1,zero
        001033dc 08 00 43 ac  	   sw         v1,0x8(v0)
        001033e0 18 00 e4 24  	   addiu      a0,a3,0x18
        001033e4 04 00 40 e4  	   swc1       f0,0x4(v0)
        001033e8 1c 00 40 a0  	   sb         zero,0x1c(v0)
        001033ec 20 00 40 ac  	   sw         zero,0x20(v0)
        001033f0 24 00 40 ac  	   sw         zero,0x24(v0)
        001033f4 28 00 40 ac  	   sw         zero,0x28(v0)
        001033f8 2c 00 40 ac  	   sw         zero,0x2c(v0)
        001033fc 30 00 40 ac  	   sw         zero,0x30(v0)
        00103400 34 00 40 e4  	   swc1       f0,0x34(v0)
        00103404 38 00 40 ac  	   sw         zero,0x38(v0)
                             LAB_00103408                                    XREF[1]:     00103418(j)  
        00103408 00 00 88 a4  	   sh         t0,0x0(a0)
        0010340c 01 00 a5 24  	   addiu      a1,a1,0x1
        00103410 08 00 a2 2c  	   sltiu      v0,a1,0x8
        00103414 00 00 00 00  	   nop
        00103418 fb ff 40 14  	   bne        v0,zero,LAB_00103408
        0010341c 02 00 84 24  	   _addiu     a0,a0,0x2
        00103420 15 00 03 3c  	   lui        v1,0x15
        00103424 99 3e 01 3c  	   lui        at,0x3e99
        00103428 9a 99 21 34  	   ori        at,at,0x999a
        0010342c 00 00 81 44  	   mtc1       at,f0
        00103430 0c 00 e4 24  	   addiu      a0,a3,0xc
        00103434 10 b0 63 34  	   ori        v1,v1,0xb010
        00103438 2c 00 80 e4  	   swc1       f0,0x2c(a0)
        0010343c 2d 10 e0 00  	   move       v0,a3
        00103440 f8 0d 00 10  	   beq        zero,zero,LAB_00106c24
        00103444 08 00 83 ac  	   _sw        v1,0x8(a0)
                             LAB_00103448                                    XREF[1]:     002ec74c(*)  
        00103448 3c 07 06 0c  	   jal        MemoryAllocate                                   void * MemoryAllocate(uint memor
        0010344c 0c 00 04 24  	   _li        a0,0xc
        00103450 ff 00 03 3c  	   lui        v1,0xff
        00103454 30 00 04 3c  	   lui        a0,0x30
        00103458 2d 28 40 00  	   move       a1,v0
        0010345c eb 0d 00 10  	   beq        zero,zero,LAB_00106c0c
        00103460 18 e0 84 24  	   _addiu     a0,a0,-0x1fe8
                             LAB_00103464                                    XREF[1]:     002ec750(*)  
        00103464 3c 07 06 0c  	   jal        MemoryAllocate                                   void * MemoryAllocate(uint memor
        00103468 14 00 04 24  	   _li        a0,0x14
        0010346c ff 00 03 3c  	   lui        v1,0xff
        00103470 30 00 04 3c  	   lui        a0,0x30
        00103474 2d 28 40 00  	   move       a1,v0
        00103478 0e 00 00 10  	   beq        zero,zero,LAB_001034b4
        0010347c d8 df 84 24  	   _addiu     a0,a0,-0x2028
                             LAB_00103480                                    XREF[1]:     002ec754(*)  
        00103480 3c 07 06 0c  	   jal        MemoryAllocate                                   void * MemoryAllocate(uint memor
        00103484 14 00 04 24  	   _li        a0,0x14
        00103488 ff 00 03 3c  	   lui        v1,0xff
        0010348c 30 00 04 3c  	   lui        a0,0x30
        00103490 2d 28 40 00  	   move       a1,v0
        00103494 07 00 00 10  	   beq        zero,zero,LAB_001034b4
        00103498 98 df 84 24  	   _addiu     a0,a0,-0x2068
                             LAB_0010349c                                    XREF[1]:     002ec758(*)  
        0010349c 3c 07 06 0c  	   jal        MemoryAllocate                                   void * MemoryAllocate(uint memor
        001034a0 14 00 04 24  	   _li        a0,0x14
        001034a4 ff 00 03 3c  	   lui        v1,0xff
        001034a8 30 00 04 3c  	   lui        a0,0x30
        001034ac 2d 28 40 00  	   move       a1,v0
        001034b0 58 df 84 24  	   addiu      a0,a0,-0x20a8
                             LAB_001034b4                                    XREF[2]:     00103478(j), 00103494(j)  
        001034b4 ff ff 63 34  	   ori        v1,v1,0xffff
        001034b8 08 00 a4 ac  	   sw         a0=>DAT_002fdf58,0x8(a1)
        001034bc 00 00 a3 ac  	   sw         v1,0x0(a1)
        001034c0 04 00 a0 ac  	   sw         zero,0x4(a1)
        001034c4 0c 00 a0 ac  	   sw         zero,0xc(a1)
        001034c8 d6 0d 00 10  	   beq        zero,zero,LAB_00106c24
        001034cc 10 00 a0 ac  	   _sw        zero,0x10(a1)
                             LAB_001034d0                                    XREF[1]:     002ec75c(*)  
        001034d0 3c 07 06 0c  	   jal        MemoryAllocate                                   void * MemoryAllocate(uint memor
        001034d4 10 00 04 24  	   _li        a0,0x10
        001034d8 ff 00 03 3c  	   lui        v1,0xff
        001034dc 30 00 04 3c  	   lui        a0,0x30
        001034e0 2d 28 40 00  	   move       a1,v0
        001034e4 2c 02 00 10  	   beq        zero,zero,LAB_00103d98
        001034e8 18 df 84 24  	   _addiu     a0,a0,-0x20e8
                             LAB_001034ec                                    XREF[1]:     002ec760(*)  
        001034ec 3c 07 06 0c  	   jal        MemoryAllocate                                   void * MemoryAllocate(uint memor
        001034f0 10 00 04 24  	   _li        a0,0x10
        001034f4 ff 00 03 3c  	   lui        v1,0xff
        001034f8 30 00 04 3c  	   lui        a0,0x30
        001034fc 2d 28 40 00  	   move       a1,v0
        00103500 25 02 00 10  	   beq        zero,zero,LAB_00103d98
        00103504 d8 de 84 24  	   _addiu     a0,a0,-0x2128
                             LAB_00103508                                    XREF[1]:     002ec764(*)  
        00103508 3c 07 06 0c  	   jal        MemoryAllocate                                   void * MemoryAllocate(uint memor
        0010350c 10 00 04 24  	   _li        a0,0x10
        00103510 ff 00 03 3c  	   lui        v1,0xff
        00103514 30 00 04 3c  	   lui        a0,0x30
        00103518 2d 28 40 00  	   move       a1,v0
        0010351c 3b 0d 00 10  	   beq        zero,zero,LAB_00106a0c
        00103520 98 de 84 24  	   _addiu     a0,a0,-0x2168
                             LAB_00103524                                    XREF[1]:     002ec768(*)  
        00103524 3c 07 06 0c  	   jal        MemoryAllocate                                   void * MemoryAllocate(uint memor
        00103528 10 00 04 24  	   _li        a0,0x10
        0010352c ff 00 03 3c  	   lui        v1,0xff
        00103530 30 00 04 3c  	   lui        a0,0x30
        00103534 2d 28 40 00  	   move       a1,v0
        00103538 34 0d 00 10  	   beq        zero,zero,LAB_00106a0c
        0010353c 58 de 84 24  	   _addiu     a0,a0,-0x21a8
                             LAB_00103540                                    XREF[1]:     002ec76c(*)  
        00103540 3c 07 06 0c  	   jal        MemoryAllocate                                   void * MemoryAllocate(uint memor
        00103544 0c 00 04 24  	   _li        a0,0xc
        00103548 ff 00 03 3c  	   lui        v1,0xff
        0010354c 30 00 04 3c  	   lui        a0,0x30
        00103550 2d 28 40 00  	   move       a1,v0
        00103554 ad 0d 00 10  	   beq        zero,zero,LAB_00106c0c
        00103558 18 de 84 24  	   _addiu     a0,a0,-0x21e8
                             LAB_0010355c                                    XREF[1]:     002ec770(*)  
        0010355c 3c 07 06 0c  	   jal        MemoryAllocate                                   void * MemoryAllocate(uint memor
        00103560 0c 00 04 24  	   _li        a0,0xc
        00103564 ff 00 03 3c  	   lui        v1,0xff
        00103568 30 00 04 3c  	   lui        a0,0x30
        0010356c 2d 28 40 00  	   move       a1,v0
        00103570 a6 0d 00 10  	   beq        zero,zero,LAB_00106c0c
        00103574 d8 dd 84 24  	   _addiu     a0,a0,-0x2228
                             LAB_00103578                                    XREF[2]:     002ec608(*), 002ec634(*)  
        00103578 3c 07 06 0c  	   jal        MemoryAllocate                                   void * MemoryAllocate(uint memor
        0010357c 1c 00 04 24  	   _li        a0,0x1c
        00103580 2d 38 40 00  	   move       a3,v0
        00103584 fe ff 05 3c  	   lui        a1,0xfffe
        00103588 ff 00 02 24  	   li         v0,0xff
        0010358c ff ff a5 34  	   ori        a1,a1,0xffff
        00103590 10 00 e2 a4  	   sh         v0,0x10(a3)
        00103594 fb ff 04 3c  	   lui        a0,0xfffb
        00103598 fd ff 02 3c  	   lui        v0,0xfffd
        0010359c ff ff 84 34  	   ori        a0,a0,0xffff
        001035a0 10 00 e3 8c  	   lw         v1,0x10(a3)
        001035a4 ff ff 42 34  	   ori        v0,v0,0xffff
        001035a8 f7 ff 06 3c  	   lui        a2,0xfff7
        001035ac 04 00 e0 ac  	   sw         zero,0x4(a3)
        001035b0 24 18 65 00  	   and        v1,v1,a1
        001035b4 ff ff c6 34  	   ori        a2,a2,0xffff
        001035b8 24 18 62 00  	   and        v1,v1,v0
        001035bc ff 00 05 3c  	   lui        a1,0xff
        001035c0 24 18 64 00  	   and        v1,v1,a0
        001035c4 ef ff 02 3c  	   lui        v0,0xffef
        001035c8 24 18 66 00  	   and        v1,v1,a2
        001035cc ff ff 42 34  	   ori        v0,v0,0xffff
        001035d0 24 18 62 00  	   and        v1,v1,v0
        001035d4 e0 00 04 3c  	   lui        a0,0xe0
        001035d8 ff fe 02 3c  	   lui        v0,0xfeff
        001035dc 25 18 64 00  	   or         v1,v1,a0
        001035e0 ff ff 42 34  	   ori        v0,v0,0xffff
        001035e4 ff c1 04 3c  	   lui        a0,0xc1ff
        001035e8 24 18 62 00  	   and        v1,v1,v0
        001035ec ff ff 84 34  	   ori        a0,a0,0xffff
        001035f0 ff bf 02 3c  	   lui        v0,0xbfff
        001035f4 24 18 64 00  	   and        v1,v1,a0
        001035f8 ff ff 42 34  	   ori        v0,v0,0xffff
        001035fc ff 7f 04 3c  	   lui        a0,0x7fff
        00103600 24 18 62 00  	   and        v1,v1,v0
        00103604 ff ff 84 34  	   ori        a0,a0,0xffff
        00103608 30 00 02 3c  	   lui        v0,0x30
        0010360c 24 18 64 00  	   and        v1,v1,a0
        00103610 38 17 42 24  	   addiu      v0,v0,0x1738
        00103614 ff ff a5 34  	   ori        a1,a1,0xffff
        00103618 ff ff 04 34  	   ori        a0,zero,0xffff
        0010361c ff 00 06 24  	   li         a2,0xff
        00103620 08 00 e2 ac  	   sw         v0=>DAT_00301738,0x8(a3)
        00103624 00 00 e5 ac  	   sw         a1,0x0(a3)
        00103628 2d 10 e0 00  	   move       v0,a3
        0010362c 0c 00 e4 a4  	   sh         a0,0xc(a3)
        00103630 0e 00 e6 a0  	   sb         a2,0xe(a3)
        00103634 10 00 e3 ac  	   sw         v1,0x10(a3)
        00103638 14 00 e0 ac  	   sw         zero,0x14(a3)
        0010363c 79 0d 00 10  	   beq        zero,zero,LAB_00106c24
        00103640 18 00 e0 ac  	   _sw        zero,0x18(a3)
                             LAB_00103644                                    XREF[1]:     002ec638(*)  
        00103644 3c 07 06 0c  	   jal        MemoryAllocate                                   void * MemoryAllocate(uint memor
        00103648 0c 00 04 24  	   _li        a0,0xc
        0010364c ff 00 03 3c  	   lui        v1,0xff
        00103650 30 00 04 3c  	   lui        a0,0x30
        00103654 2d 28 40 00  	   move       a1,v0
        00103658 6c 0d 00 10  	   beq        zero,zero,LAB_00106c0c
        0010365c 78 17 84 24  	   _addiu     a0,a0,0x1778
                             LAB_00103660                                    XREF[1]:     002ec60c(*)  
        00103660 3c 07 06 0c  	   jal        MemoryAllocate                                   void * MemoryAllocate(uint memor
        00103664 40 00 04 24  	   _li        a0,0x40
        00103668 30 00 03 3c  	   lui        v1,0x30
        0010366c 2d 20 40 00  	   move       a0,v0
        00103670 f8 16 63 24  	   addiu      v1,v1,0x16f8
        00103674 0f 80 07 3c  	   lui        a3,0x800f
        00103678 ff ff e7 34  	   ori        a3,a3,0xffff
        0010367c 38 3b 07 00  	   dsll       a3,a3,0xc
        00103680 ff 0f e7 34  	   ori        a3,a3,0xfff
        00103684 08 00 83 ac  	   sw         v1=>DAT_003016f8,0x8(a0)
        00103688 ff bf 08 3c  	   lui        t0,0xbfff
        0010368c ff ff 08 35  	   ori        t0,t0,0xffff
        00103690 78 43 08 00  	   dsll       t0,t0,0xd
        00103694 ff 1f 08 35  	   ori        t0,t0,0x1fff
        00103698 ff 87 09 3c  	   lui        t1,0x87ff
        0010369c ff ff 29 35  	   ori        t1,t1,0xffff
        001036a0 38 4c 09 00  	   dsll       t1,t1,0x10
        001036a4 ff ff 29 35  	   ori        t1,t1,0xffff
        001036a8 78 48 09 00  	   dsll       t1,t1,0x1
        001036ac 01 00 29 35  	   ori        t1,t1,0x1
        001036b0 00 80 0a 34  	   ori        t2,zero,0x8000
        001036b4 b8 57 0a 00  	   dsll       t2,t2,0x1e
        001036b8 08 00 83 dc  	   ld         v1,0x8(a0)
        001036bc ff 00 02 3c  	   lui        v0,0xff
        001036c0 ff ff 42 34  	   ori        v0,v0,0xffff
        001036c4 ff 00 06 24  	   li         a2,0xff
        001036c8 24 18 67 00  	   and        v1,v1,a3
        001036cc ff ff 05 34  	   ori        a1,zero,0xffff
        001036d0 24 18 68 00  	   and        v1,v1,t0
        001036d4 00 00 82 ac  	   sw         v0,0x0(a0)
        001036d8 24 18 69 00  	   and        v1,v1,t1
        001036dc 30 00 85 a4  	   sh         a1,0x30(a0)
        001036e0 25 18 6a 00  	   or         v1,v1,t2
        001036e4 2d 10 80 00  	   move       v0,a0
        001036e8 08 00 83 fc  	   sd         v1,0x8(a0)
        001036ec 0f 00 86 a0  	   sb         a2,0xf(a0)
        001036f0 04 00 80 ac  	   sw         zero,0x4(a0)
        001036f4 4b 0d 00 10  	   beq        zero,zero,LAB_00106c24
        001036f8 0e 00 86 a0  	   _sb        a2,0xe(a0)
                             LAB_001036fc                                    XREF[1]:     002ec878(*)  
        001036fc 3c 07 06 0c  	   jal        MemoryAllocate                                   void * MemoryAllocate(uint memor
        00103700 10 00 04 24  	   _li        a0,0x10
        00103704 ff 00 04 3c  	   lui        a0,0xff
        00103708 30 00 05 3c  	   lui        a1,0x30
        0010370c 2d 18 40 00  	   move       v1,v0
        00103710 b8 16 a5 24  	   addiu      a1=>DAT_003016b8,a1,0x16b8
        00103714 ff ff 84 34  	   ori        a0,a0,0xffff
        00103718 ff ff 06 34  	   ori        a2,zero,0xffff
        0010371c ff 00 07 24  	   li         a3,0xff
        00103720 00 00 64 ac  	   sw         a0,0x0(v1)
        00103724 08 00 65 ac  	   sw         a1=>DAT_003016b8,0x8(v1)
        00103728 0c 00 66 a4  	   sh         a2,0xc(v1)
        0010372c 0e 00 67 a0  	   sb         a3,0xe(v1)
        00103730 3c 0d 00 10  	   beq        zero,zero,LAB_00106c24
        00103734 04 00 60 ac  	   _sw        zero,0x4(v1)
                             LAB_00103738                                    XREF[1]:     002ec774(*)  
        00103738 3c 07 06 0c  	   jal        MemoryAllocate                                   void * MemoryAllocate(uint memor
        0010373c 10 00 04 24  	   _li        a0,0x10
        00103740 ff 00 03 3c  	   lui        v1,0xff
        00103744 30 00 04 3c  	   lui        a0,0x30
        00103748 2d 28 40 00  	   move       a1,v0
        0010374c 48 0c 00 10  	   beq        zero,zero,LAB_00106870
        00103750 38 16 84 24  	   _addiu     a0,a0,0x1638
                             LAB_00103754                                    XREF[1]:     002ec704(*)  
        00103754 3c 07 06 0c  	   jal        MemoryAllocate                                   void * MemoryAllocate(uint memor
        00103758 14 00 04 24  	   _li        a0,0x14
        0010375c ff 00 05 3c  	   lui        a1,0xff
        00103760 30 00 04 3c  	   lui        a0,0x30
        00103764 20 41 01 3c  	   lui        at,0x4120
        00103768 00 08 81 44  	   mtc1       at,f1
        0010376c 2d 18 40 00  	   move       v1,v0
        00103770 80 3f 01 3c  	   lui        at,0x3f80
        00103774 00 00 81 44  	   mtc1       at,f0
        00103778 78 16 84 24  	   addiu      a0,a0,0x1678
        0010377c ff ff a5 34  	   ori        a1,a1,0xffff
        00103780 08 00 64 ac  	   sw         a0=>DAT_00301678,0x8(v1)
        00103784 00 00 65 ac  	   sw         a1,0x0(v1)
        00103788 c7 06 00 10  	   beq        zero,zero,LAB_001052a8
        0010378c 0c 00 61 e4  	   _swc1      f1,0xc(v1)
                             LAB_00103790                                    XREF[1]:     002ec708(*)  
        00103790 3c 07 06 0c  	   jal        MemoryAllocate                                   void * MemoryAllocate(uint memor
        00103794 14 00 04 24  	   _li        a0,0x14
        00103798 2d 20 40 00  	   move       a0,v0
        0010379c ff fe 06 24  	   li         a2,-0x101
        001037a0 ff 00 02 24  	   li         v0,0xff
        001037a4 ff fd 08 24  	   li         t0,-0x201
        001037a8 0c 00 82 a0  	   sb         v0,0xc(a0)
        001037ac ff fb 09 24  	   li         t1,-0x401
        001037b0 ff 00 02 3c  	   lui        v0,0xff
        001037b4 30 00 05 3c  	   lui        a1,0x30
        001037b8 0c 00 83 8c  	   lw         v1,0xc(a0)
        001037bc ff ff 42 34  	   ori        v0,v0,0xffff
        001037c0 ff f7 07 24  	   li         a3,-0x801
        001037c4 80 3f 01 3c  	   lui        at,0x3f80
        001037c8 00 00 81 44  	   mtc1       at,f0
        001037cc 24 18 66 00  	   and        v1,v1,a2
        001037d0 58 e0 a5 24  	   addiu      a1=>DAT_002fe058,a1,-0x1fa8
        001037d4 24 18 68 00  	   and        v1,v1,t0
        001037d8 00 00 82 ac  	   sw         v0,0x0(a0)
        001037dc 24 18 69 00  	   and        v1,v1,t1
        001037e0 08 00 85 ac  	   sw         a1=>DAT_002fe058,0x8(a0)
        001037e4 24 18 67 00  	   and        v1,v1,a3
        001037e8 2d 10 80 00  	   move       v0,a0
        001037ec 0c 00 83 ac  	   sw         v1,0xc(a0)
        001037f0 10 00 80 e4  	   swc1       f0,0x10(a0)
        001037f4 0b 0d 00 10  	   beq        zero,zero,LAB_00106c24
        001037f8 04 00 80 ac  	   _sw        zero,0x4(a0)
                             LAB_001037fc                                    XREF[1]:     002ec6bc(*)  
        001037fc 3c 07 06 0c  	   jal        MemoryAllocate                                   void * MemoryAllocate(uint memor
        00103800 10 00 04 24  	   _li        a0,0x10
        00103804 2d 28 40 00  	   move       a1,v0
        00103808 f8 ff 06 24  	   li         a2,-0x8
        0010380c 0c 00 a4 8c  	   lw         a0,0xc(a1)
        00103810 ff 00 02 3c  	   lui        v0,0xff
        00103814 ff ff 42 34  	   ori        v0,v0,0xffff
        00103818 30 00 03 3c  	   lui        v1,0x30
        0010381c 24 20 86 00  	   and        a0,a0,a2
        00103820 20 0a 00 10  	   beq        zero,zero,LAB_001060a4
        00103824 58 ee 63 24  	   _addiu     v1,v1,-0x11a8
                             LAB_00103828                                    XREF[1]:     002ec6c0(*)  
        00103828 3c 07 06 0c  	   jal        MemoryAllocate                                   void * MemoryAllocate(uint memor
        0010382c 10 00 04 24  	   _li        a0,0x10
        00103830 2d 28 40 00  	   move       a1,v0
        00103834 f8 ff 06 24  	   li         a2,-0x8
        00103838 0c 00 a4 8c  	   lw         a0,0xc(a1)
        0010383c ff 00 02 3c  	   lui        v0,0xff
        00103840 ff ff 42 34  	   ori        v0,v0,0xffff
        00103844 30 00 03 3c  	   lui        v1,0x30
        00103848 24 20 86 00  	   and        a0,a0,a2
        0010384c 58 ee 63 24  	   addiu      v1,v1,-0x11a8
        00103850 15 0a 00 10  	   beq        zero,zero,LAB_001060a8
        00103854 02 00 84 34  	   _ori       a0,a0,0x2
                             LAB_00103858                                    XREF[1]:     002ec6c4(*)  
        00103858 3c 07 06 0c  	   jal        MemoryAllocate                                   void * MemoryAllocate(uint memor
        0010385c 10 00 04 24  	   _li        a0,0x10
        00103860 2d 28 40 00  	   move       a1,v0
        00103864 f8 ff 06 24  	   li         a2,-0x8
        00103868 0c 00 a4 8c  	   lw         a0,0xc(a1)
        0010386c ff 00 02 3c  	   lui        v0,0xff
        00103870 ff ff 42 34  	   ori        v0,v0,0xffff
        00103874 30 00 03 3c  	   lui        v1,0x30
        00103878 24 20 86 00  	   and        a0,a0,a2
        0010387c 09 0a 00 10  	   beq        zero,zero,LAB_001060a4
        00103880 18 ee 63 24  	   _addiu     v1,v1,-0x11e8
                             LAB_00103884                                    XREF[1]:     002ec6c8(*)  
        00103884 3c 07 06 0c  	   jal        MemoryAllocate                                   void * MemoryAllocate(uint memor
        00103888 10 00 04 24  	   _li        a0,0x10
        0010388c 2d 28 40 00  	   move       a1,v0
        00103890 f8 ff 06 24  	   li         a2,-0x8
        00103894 0c 00 a4 8c  	   lw         a0,0xc(a1)
        00103898 ff 00 02 3c  	   lui        v0,0xff
        0010389c ff ff 42 34  	   ori        v0,v0,0xffff
        001038a0 30 00 03 3c  	   lui        v1,0x30
        001038a4 24 20 86 00  	   and        a0,a0,a2
        001038a8 18 ee 63 24  	   addiu      v1,v1,-0x11e8
        001038ac fe 09 00 10  	   beq        zero,zero,LAB_001060a8
        001038b0 02 00 84 34  	   _ori       a0,a0,0x2
                             LAB_001038b4                                    XREF[1]:     002ec7a0(*)  
        001038b4 3c 07 06 0c  	   jal        MemoryAllocate                                   void * MemoryAllocate(uint memor
        001038b8 10 00 04 24  	   _li        a0,0x10
        001038bc 2d 18 40 00  	   move       v1,v0
        001038c0 ff 00 05 3c  	   lui        a1,0xff
        001038c4 ff ff 02 34  	   ori        v0,zero,0xffff
        001038c8 01 00 06 3c  	   lui        a2,0x1
        001038cc 0c 00 62 a4  	   sh         v0,0xc(v1)
        001038d0 ff ff a5 34  	   ori        a1,a1,0xffff
        001038d4 30 00 02 3c  	   lui        v0,0x30
        001038d8 00 00 65 ac  	   sw         a1,0x0(v1)
        001038dc 0c 00 64 8c  	   lw         a0,0xc(v1)
        001038e0 f8 15 42 24  	   addiu      v0,v0,0x15f8
        001038e4 08 00 62 ac  	   sw         v0=>DAT_003015f8,0x8(v1)
        001038e8 25 20 86 00  	   or         a0,a0,a2
        001038ec b8 0b 00 10  	   beq        zero,zero,LAB_001067d0
        001038f0 2d 10 60 00  	   _move      v0,v1
                             LAB_001038f4                                    XREF[1]:     002ec5c0(*)  
        001038f4 3c 07 06 0c  	   jal        MemoryAllocate                                   void * MemoryAllocate(uint memor
        001038f8 0c 00 04 24  	   _li        a0,0xc
        001038fc ff 00 03 3c  	   lui        v1,0xff
        00103900 30 00 04 3c  	   lui        a0,0x30
        00103904 2d 28 40 00  	   move       a1,v0
        00103908 c0 0c 00 10  	   beq        zero,zero,LAB_00106c0c
        0010390c 18 e5 84 24  	   _addiu     a0,a0,-0x1ae8
                             LAB_00103910                                    XREF[1]:     002ec78c(*)  
        00103910 3c 07 06 0c  	   jal        MemoryAllocate                                   void * MemoryAllocate(uint memor
        00103914 0c 00 04 24  	   _li        a0,0xc
        00103918 ff 00 03 3c  	   lui        v1,0xff
        0010391c 30 00 04 3c  	   lui        a0,0x30
        00103920 2d 28 40 00  	   move       a1,v0
        00103924 b9 0c 00 10  	   beq        zero,zero,LAB_00106c0c
        00103928 d8 e4 84 24  	   _addiu     a0,a0,-0x1b28
                             LAB_0010392c                                    XREF[1]:     002ec5cc(*)  
        0010392c 3c 07 06 0c  	   jal        MemoryAllocate                                   void * MemoryAllocate(uint memor
        00103930 0c 00 04 24  	   _li        a0,0xc
        00103934 ff 00 03 3c  	   lui        v1,0xff
        00103938 30 00 04 3c  	   lui        a0,0x30
        0010393c 2d 28 40 00  	   move       a1,v0
        00103940 b2 0c 00 10  	   beq        zero,zero,LAB_00106c0c
        00103944 98 e4 84 24  	   _addiu     a0,a0,-0x1b68
                             LAB_00103948                                    XREF[1]:     002ec71c(*)  
        00103948 3c 07 06 0c  	   jal        MemoryAllocate                                   void * MemoryAllocate(uint memor
        0010394c 0c 00 04 24  	   _li        a0,0xc
        00103950 ff 00 03 3c  	   lui        v1,0xff
        00103954 30 00 04 3c  	   lui        a0,0x30
        00103958 2d 28 40 00  	   move       a1,v0
        0010395c ab 0c 00 10  	   beq        zero,zero,LAB_00106c0c
        00103960 58 e4 84 24  	   _addiu     a0,a0,-0x1ba8
                             LAB_00103964                                    XREF[1]:     002ec7e4(*)  
        00103964 3c 07 06 0c  	   jal        MemoryAllocate                                   void * MemoryAllocate(uint memor
        00103968 10 00 04 24  	   _li        a0,0x10
        0010396c ff 00 03 3c  	   lui        v1,0xff
        00103970 30 00 04 3c  	   lui        a0,0x30
        00103974 2d 28 40 00  	   move       a1,v0
        00103978 87 08 00 10  	   beq        zero,zero,LAB_00105b98
        0010397c 18 e4 84 24  	   _addiu     a0,a0,-0x1be8
                             LAB_00103980                                    XREF[1]:     002ec884(*)  
        00103980 3c 07 06 0c  	   jal        MemoryAllocate                                   void * MemoryAllocate(uint memor
        00103984 0c 00 04 24  	   _li        a0,0xc
        00103988 ff 00 03 3c  	   lui        v1,0xff
        0010398c 30 00 04 3c  	   lui        a0,0x30
        00103990 2d 28 40 00  	   move       a1,v0
        00103994 9d 0c 00 10  	   beq        zero,zero,LAB_00106c0c
        00103998 58 e5 84 24  	   _addiu     a0,a0,-0x1aa8
                             LAB_0010399c                                    XREF[1]:     002ec5e0(*)  
        0010399c 3c 07 06 0c  	   jal        MemoryAllocate                                   void * MemoryAllocate(uint memor
        001039a0 50 00 04 24  	   _li        a0,0x50
        001039a4 fc 4b 09 0c  	   jal        FUN_00252ff0                                     undefined8 FUN_00252ff0(undefine
        001039a8 2d 20 40 00  	   _move      a0,v0
        001039ac 9e 0c 00 10  	   beq        zero,zero,LAB_00106c28
        001039b0 30 00 b0 df  	   _ld        s0,0x30(sp)
                             LAB_001039b4                                    XREF[1]:     002ecf08(*)  
        001039b4 3c 07 06 0c  	   jal        MemoryAllocate                                   void * MemoryAllocate(uint memor
        001039b8 10 00 04 24  	   _li        a0,0x10
        001039bc 2d 28 40 00  	   move       a1,v0
        001039c0 fc ff 06 24  	   li         a2,-0x4
        001039c4 0c 00 a3 8c  	   lw         v1,0xc(a1)
        001039c8 f3 ff 07 24  	   li         a3,-0xd
        001039cc cf ff 08 24  	   li         t0,-0x31
        001039d0 ff 00 02 3c  	   lui        v0,0xff
        001039d4 24 18 66 00  	   and        v1,v1,a2
        001039d8 ff ff 42 34  	   ori        v0,v0,0xffff
        001039dc 24 18 67 00  	   and        v1,v1,a3
        001039e0 2f 00 04 3c  	   lui        a0,0x2f
        001039e4 3f ff 06 24  	   li         a2,-0xc1
        001039e8 24 18 68 00  	   and        v1,v1,t0
        001039ec c5 07 00 10  	   beq        zero,zero,LAB_00105904
        001039f0 88 ec 84 24  	   _addiu     a0,a0,-0x1378
                             LAB_001039f4                                    XREF[1]:     002ec70c(*)  
        001039f4 3c 07 06 0c  	   jal        MemoryAllocate                                   void * MemoryAllocate(uint memor
        001039f8 0c 00 04 24  	   _li        a0,offset DAT_fffffff3
        001039fc ff 00 03 3c  	   lui        v1,0xff
        00103a00 30 00 04 3c  	   lui        a0,0x30
        00103a04 2d 28 40 00  	   move       a1,v0
        00103a08 80 0c 00 10  	   beq        zero,zero,LAB_00106c0c
        00103a0c b8 1f 84 24  	   _addiu     a0,a0,0x1fb8
                             LAB_00103a10                                    XREF[1]:     002ec710(*)  
        00103a10 3c 07 06 0c  	   jal        MemoryAllocate                                   void * MemoryAllocate(uint memor
        00103a14 0c 00 04 24  	   _li        a0,offset DAT_fffffff3
        00103a18 ff 00 03 3c  	   lui        v1,0xff
        00103a1c 30 00 04 3c  	   lui        a0,0x30
        00103a20 2d 28 40 00  	   move       a1,v0
        00103a24 79 0c 00 10  	   beq        zero,zero,LAB_00106c0c
        00103a28 78 1f 84 24  	   _addiu     a0,a0,0x1f78
                             LAB_00103a2c                                    XREF[1]:     002ec7c8(*)  
        00103a2c 3c 07 06 0c  	   jal        MemoryAllocate                                   void * MemoryAllocate(uint memor
        00103a30 10 00 04 24  	   _li        a0,offset DAT_fffffff3
        00103a34 ff 00 03 3c  	   lui        v1,0xff
        00103a38 30 00 05 3c  	   lui        a1,0x30
        00103a3c 2d 80 40 00  	   move       s0,v0
        00103a40 38 1f a5 24  	   addiu      a1=>DAT_00301f38,a1,0x1f38
        00103a44 ff ff 63 34  	   ori        v1,v1,0xffff
        00103a48 00 60 80 44  	   clear      f12
        00103a4c 00 00 03 ae  	   sw         v1,0x0(s0)
        00103a50 0c 00 04 26  	   addiu      a0,s0,0xc
        00103a54 08 00 05 ae  	   sw         a1=>DAT_00301f38,0x8(s0)
        00103a58 49 0c 00 10  	   beq        zero,zero,LAB_00106b80
        00103a5c 04 00 00 ae  	   _sw        zero,0x4(s0)
                             LAB_00103a60                                    XREF[1]:     002ec5d0(*)  
        00103a60 3c 07 06 0c  	   jal        MemoryAllocate                                   void * MemoryAllocate(uint memor
        00103a64 14 00 04 24  	   _li        a0,offset DAT_fffffff3
        00103a68 2d 18 40 00  	   move       v1,v0
        00103a6c ff 00 05 3c  	   lui        a1,0xff
        00103a70 0c 00 66 8c  	   lw         a2,0xc(v1)
        00103a74 30 00 02 3c  	   lui        v0,0x30
        00103a78 38 21 42 24  	   addiu      v0,v0,0x2138
        00103a7c fe ff 04 24  	   li         a0,-0x2
        00103a80 80 3f 01 3c  	   lui        at,0x3f80
        00103a84 00 00 81 44  	   mtc1       at,f0
        00103a88 24 30 c4 00  	   and        a2,a2,a0
        00103a8c ff ff a5 34  	   ori        a1,a1,0xffff
        00103a90 08 00 62 ac  	   sw         v0=>DAT_00302138,0x8(v1)
        00103a94 00 00 65 ac  	   sw         a1,0x0(v1)
        00103a98 02 06 00 10  	   beq        zero,zero,LAB_001052a4
        00103a9c 2d 10 60 00  	   _move      v0,v1
                             LAB_00103aa0                                    XREF[1]:     002ec604(*)  
        00103aa0 3c 07 06 0c  	   jal        MemoryAllocate                                   void * MemoryAllocate(uint memor
        00103aa4 0c 00 04 24  	   _li        a0,offset DAT_fffffff3
        00103aa8 ff 00 03 3c  	   lui        v1,0xff
        00103aac 30 00 04 3c  	   lui        a0,0x30
        00103ab0 2d 28 40 00  	   move       a1,v0
        00103ab4 55 0c 00 10  	   beq        zero,zero,LAB_00106c0c
        00103ab8 f8 1f 84 24  	   _addiu     a0,a0,0x1ff8
                             LAB_00103abc                                    XREF[1]:     002ec648(*)  
        00103abc 3c 07 06 0c  	   jal        MemoryAllocate                                   void * MemoryAllocate(uint memor
        00103ac0 30 00 04 24  	   _li        a0,offset DAT_fffffff3
        00103ac4 30 00 03 3c  	   lui        v1,0x30
        00103ac8 2d 20 40 00  	   move       a0,v0
        00103acc f8 1e 63 24  	   addiu      v1,v1,0x1ef8
        00103ad0 ff bf 05 3c  	   lui        a1,0xbfff
        00103ad4 ff ff a5 34  	   ori        a1,a1,0xffff
        00103ad8 b8 28 05 00  	   dsll       a1,a1,0x2
        00103adc 03 00 a5 34  	   ori        a1,a1,0x3
        00103ae0 08 00 83 ac  	   sw         v1=>DAT_00301ef8,0x8(a0)
        00103ae4 ff bf 06 3c  	   lui        a2,0xbfff
        00103ae8 ff ff c6 34  	   ori        a2,a2,0xffff
        00103aec f8 30 06 00  	   dsll       a2,a2,0x3
        00103af0 07 00 c6 34  	   ori        a2,a2,0x7
        00103af4 ff bf 07 3c  	   lui        a3,0xbfff
        00103af8 ff ff e7 34  	   ori        a3,a3,0xffff
        00103afc 38 39 07 00  	   dsll       a3,a3,0x4
        00103b00 0f 00 e7 34  	   ori        a3,a3,0xf
        00103b04 ff bf 09 3c  	   lui        t1,0xbfff
        00103b08 ff ff 29 35  	   ori        t1,t1,0xffff
        00103b0c 78 49 09 00  	   dsll       t1,t1,0x5
        00103b10 1f 00 29 35  	   ori        t1,t1,0x1f
        00103b14 08 00 82 dc  	   ld         v0,0x8(a0)
        00103b18 ff 00 03 3c  	   lui        v1,0xff
        00103b1c ff ff 63 34  	   ori        v1,v1,0xffff
        00103b20 ff bf 08 3c  	   lui        t0,0xbfff
        00103b24 ff ff 08 35  	   ori        t0,t0,0xffff
        00103b28 b8 41 08 00  	   dsll       t0,t0,0x6
        00103b2c 3f 00 08 35  	   ori        t0,t0,0x3f
        00103b30 24 10 45 00  	   and        v0,v0,a1
        00103b34 00 00 83 ac  	   sw         v1,0x0(a0)
        00103b38 24 10 46 00  	   and        v0,v0,a2
        00103b3c 80 3f 01 3c  	   lui        at,0x3f80
        00103b40 00 00 81 44  	   mtc1       at,f0
        00103b44 24 10 47 00  	   and        v0,v0,a3
        00103b48 04 00 80 ac  	   sw         zero,0x4(a0)
        00103b4c 24 10 49 00  	   and        v0,v0,t1
        00103b50 10 00 83 24  	   addiu      v1,a0,0x10
        00103b54 24 10 48 00  	   and        v0,v0,t0
        00103b58 10 00 80 ac  	   sw         zero,0x10(a0)
        00103b5c 08 00 82 fc  	   sd         v0,0x8(a0)
        00103b60 0c 00 60 e4  	   swc1       f0,0xc(v1)
        00103b64 2d 10 80 00  	   move       v0,a0
        00103b68 04 00 60 ac  	   sw         zero,0x4(v1)
        00103b6c 08 00 60 ac  	   sw         zero,0x8(v1)
        00103b70 20 00 80 ac  	   sw         zero,0x20(a0)
        00103b74 24 00 80 ac  	   sw         zero,0x24(a0)
        00103b78 2a 0c 00 10  	   beq        zero,zero,LAB_00106c24
        00103b7c 28 00 80 ac  	   _sw        zero,0x28(a0)
                             LAB_00103b80                                    XREF[1]:     002ec64c(*)  
        00103b80 3c 07 06 0c  	   jal        MemoryAllocate                                   void * MemoryAllocate(uint memor
        00103b84 0c 00 04 24  	   _li        a0,0xc
        00103b88 ff 00 03 3c  	   lui        v1,0xff
        00103b8c 30 00 04 3c  	   lui        a0,0x30
        00103b90 2d 28 40 00  	   move       a1,v0
        00103b94 1d 0c 00 10  	   beq        zero,zero,LAB_00106c0c
        00103b98 b8 1e 84 24  	   _addiu     a0,a0,0x1eb8
                             LAB_00103b9c                                    XREF[1]:     002ec650(*)  
        00103b9c 3c 07 06 0c  	   jal        MemoryAllocate                                   void * MemoryAllocate(uint memor
        00103ba0 50 00 04 24  	   _li        a0,0x50
        00103ba4 b6 4c 09 0c  	   jal        FUN_002532d8                                     undefined8 FUN_002532d8(undefine
        00103ba8 2d 20 40 00  	   _move      a0,v0
        00103bac 1e 0c 00 10  	   beq        zero,zero,LAB_00106c28
        00103bb0 30 00 b0 df  	   _ld        s0,0x30(sp)
                             LAB_00103bb4                                    XREF[1]:     002ec834(*)  
        00103bb4 3c 07 06 0c  	   jal        MemoryAllocate                                   void * MemoryAllocate(uint memor
        00103bb8 30 00 04 24  	   _li        a0,0x30
        00103bbc ff 00 03 3c  	   lui        v1,0xff
        00103bc0 30 00 04 3c  	   lui        a0,0x30
        00103bc4 2d 28 40 00  	   move       a1,v0
        00103bc8 38 1e 84 24  	   addiu      a0,a0,0x1e38
        00103bcc ff ff 63 34  	   ori        v1,v1,0xffff
        00103bd0 80 3f 01 3c  	   lui        at,0x3f80
        00103bd4 00 00 81 44  	   mtc1       at,f0
        00103bd8 00 00 a3 ac  	   sw         v1,0x0(a1)
        00103bdc 10 00 a2 24  	   addiu      v0,a1,0x10
        00103be0 08 00 a4 ac  	   sw         a0=>DAT_00301e38,0x8(a1)
        00103be4 f0 ff 0c 24  	   li         t4,-0x10
        00103be8 04 00 a0 ac  	   sw         zero,0x4(a1)
        00103bec 02 00 0d 24  	   li         t5,0x2
        00103bf0 10 00 a0 ac  	   sw         zero,0x10(a1)
        00103bf4 f0 0f 0b 24  	   li         t3,0xff0
        00103bf8 0c 00 40 e4  	   swc1       f0,0xc(v0)
        00103bfc 0f 00 0a 3c  	   lui        t2,0xf
        00103c00 00 f0 4a 35  	   ori        t2,t2,0xf000
        00103c04 04 00 40 ac  	   sw         zero,0x4(v0)
        00103c08 ef ff 09 3c  	   lui        t1,0xffef
        00103c0c ff ff 29 35  	   ori        t1,t1,0xffff
        00103c10 08 00 40 ac  	   sw         zero,0x8(v0)
        00103c14 df ff 06 3c  	   lui        a2,0xffdf
        00103c18 ff ff c6 34  	   ori        a2,a2,0xffff
        00103c1c bf ff 07 3c  	   lui        a3,0xffbf
        00103c20 ff ff e7 34  	   ori        a3,a3,0xffff
        00103c24 7f ff 08 3c  	   lui        t0,0xff7f
        00103c28 ff ff 08 35  	   ori        t0,t0,0xffff
        00103c2c 20 00 a3 dc  	   ld         v1,0x20(a1)
        00103c30 ff fe 04 3c  	   lui        a0,0xfeff
        00103c34 ff ff 84 34  	   ori        a0,a0,0xffff
        00103c38 2d 10 a0 00  	   move       v0,a1
        00103c3c 28 00 a0 ac  	   sw         zero,0x28(a1)
        00103c40 24 18 6c 00  	   and        v1,v1,t4
        00103c44 2c 00 a0 ac  	   sw         zero,0x2c(a1)
        00103c48 25 18 6d 00  	   or         v1,v1,t5
        00103c4c 25 18 6b 00  	   or         v1,v1,t3
        00103c50 25 18 6a 00  	   or         v1,v1,t2
        00103c54 24 18 69 00  	   and        v1,v1,t1
        00103c58 24 18 66 00  	   and        v1,v1,a2
        00103c5c 24 18 67 00  	   and        v1,v1,a3
        00103c60 24 18 68 00  	   and        v1,v1,t0
        00103c64 24 18 64 00  	   and        v1,v1,a0
        00103c68 20 00 a3 fc  	   sd         v1,0x20(a1)
        00103c6c ed 0b 00 10  	   beq        zero,zero,LAB_00106c24
        00103c70 24 00 a0 ac  	   _sw        zero,0x24(a1)
                             LAB_00103c74                                    XREF[1]:     002ec660(*)  
        00103c74 3c 07 06 0c  	   jal        MemoryAllocate                                   void * MemoryAllocate(uint memor
        00103c78 30 00 04 24  	   _li        a0,0x30
        00103c7c 2d 20 40 00  	   move       a0,v0
        00103c80 30 00 03 3c  	   lui        v1,0x30
        00103c84 f8 1d 63 24  	   addiu      v1,v1,0x1df8
        00103c88 ff 00 02 24  	   li         v0,0xff
        00103c8c 08 00 83 ac  	   sw         v1=>DAT_00301df8,0x8(a0)
        00103c90 ff bf 05 3c  	   lui        a1,0xbfff
        00103c94 ff ff a5 34  	   ori        a1,a1,0xffff
        00103c98 b8 2a 05 00  	   dsll       a1,a1,0xa
        00103c9c ff 03 a5 34  	   ori        a1,a1,0x3ff
        00103ca0 0c 00 82 a0  	   sb         v0,0xc(a0)
        00103ca4 ff bf 06 3c  	   lui        a2,0xbfff
        00103ca8 ff ff c6 34  	   ori        a2,a2,0xffff
        00103cac f8 32 06 00  	   dsll       a2,a2,0xb
        00103cb0 ff 07 c6 34  	   ori        a2,a2,0x7ff
        00103cb4 ff bf 07 3c  	   lui        a3,0xbfff
        00103cb8 ff ff e7 34  	   ori        a3,a3,0xffff
        00103cbc 38 3b 07 00  	   dsll       a3,a3,0xc
        00103cc0 ff 0f e7 34  	   ori        a3,a3,0xfff
        00103cc4 ff bf 09 3c  	   lui        t1,0xbfff
        00103cc8 ff ff 29 35  	   ori        t1,t1,0xffff
        00103ccc 78 4b 09 00  	   dsll       t1,t1,0xd
        00103cd0 ff 1f 29 35  	   ori        t1,t1,0x1fff
        00103cd4 08 00 82 dc  	   ld         v0,0x8(a0)
        00103cd8 ff 00 03 3c  	   lui        v1,0xff
        00103cdc ff ff 63 34  	   ori        v1,v1,0xffff
        00103ce0 ff bf 08 3c  	   lui        t0,0xbfff
        00103ce4 ff ff 08 35  	   ori        t0,t0,0xffff
        00103ce8 b8 43 08 00  	   dsll       t0,t0,0xe
        00103cec ff 3f 08 35  	   ori        t0,t0,0x3fff
        00103cf0 24 10 45 00  	   and        v0,v0,a1
        00103cf4 00 00 83 ac  	   sw         v1,0x0(a0)
        00103cf8 24 10 46 00  	   and        v0,v0,a2
        00103cfc 80 3f 01 3c  	   lui        at,0x3f80
        00103d00 00 00 81 44  	   mtc1       at,f0
        00103d04 24 10 47 00  	   and        v0,v0,a3
        00103d08 04 00 80 ac  	   sw         zero,0x4(a0)
        00103d0c 24 10 49 00  	   and        v0,v0,t1
        00103d10 10 00 80 ac  	   sw         zero,0x10(a0)
        00103d14 24 10 48 00  	   and        v0,v0,t0
        00103d18 10 00 83 24  	   addiu      v1,a0,0x10
        00103d1c 08 00 82 fc  	   sd         v0,0x8(a0)
        00103d20 20 00 85 24  	   addiu      a1,a0,0x20
        00103d24 0c 00 60 e4  	   swc1       f0,0xc(v1)
        00103d28 2d 10 80 00  	   move       v0,a0
        00103d2c 04 00 60 ac  	   sw         zero,0x4(v1)
        00103d30 08 00 60 ac  	   sw         zero,0x8(v1)
        00103d34 20 00 80 ac  	   sw         zero,0x20(a0)
        00103d38 0c 00 a0 e4  	   swc1       f0,0xc(a1)
        00103d3c 04 00 a0 ac  	   sw         zero,0x4(a1)
        00103d40 b8 0b 00 10  	   beq        zero,zero,LAB_00106c24
        00103d44 08 00 a0 ac  	   _sw        zero,0x8(a1)
                             LAB_00103d48                                    XREF[1]:     002ec730(*)  
        00103d48 3c 07 06 0c  	   jal        MemoryAllocate                                   void * MemoryAllocate(uint memor
        00103d4c 0c 00 04 24  	   _li        a0,0xc
        00103d50 ff 00 03 3c  	   lui        v1,0xff
        00103d54 30 00 04 3c  	   lui        a0,0x30
        00103d58 2d 28 40 00  	   move       a1,v0
        00103d5c ab 0b 00 10  	   beq        zero,zero,LAB_00106c0c
        00103d60 b8 1c 84 24  	   _addiu     a0,a0,0x1cb8
                             LAB_00103d64                                    XREF[1]:     002ec734(*)  
        00103d64 3c 07 06 0c  	   jal        MemoryAllocate                                   void * MemoryAllocate(uint memor
        00103d68 0c 00 04 24  	   _li        a0,0xc
        00103d6c ff 00 03 3c  	   lui        v1,0xff
        00103d70 30 00 04 3c  	   lui        a0,0x30
        00103d74 2d 28 40 00  	   move       a1,v0
        00103d78 a4 0b 00 10  	   beq        zero,zero,LAB_00106c0c
        00103d7c 78 1c 84 24  	   _addiu     a0,a0,0x1c78
                             LAB_00103d80                                    XREF[1]:     002ec72c(*)  
        00103d80 3c 07 06 0c  	   jal        MemoryAllocate                                   void * MemoryAllocate(uint memor
        00103d84 10 00 04 24  	   _li        a0,0x10
        00103d88 ff 00 03 3c  	   lui        v1,0xff
        00103d8c 30 00 04 3c  	   lui        a0,0x30
        00103d90 2d 28 40 00  	   move       a1,v0
        00103d94 b8 20 84 24  	   addiu      a0,a0,0x20b8
                             LAB_00103d98                                    XREF[2]:     001034e4(j), 00103500(j)  
        00103d98 ff ff 63 34  	   ori        v1,v1,0xffff
        00103d9c 08 00 a4 ac  	   sw         a0=>DAT_003020b8,0x8(a1)
        00103da0 00 00 a3 ac  	   sw         v1,0x0(a1)
        00103da4 04 00 a0 ac  	   sw         zero,0x4(a1)
        00103da8 9e 0b 00 10  	   beq        zero,zero,LAB_00106c24
        00103dac 0c 00 a0 ac  	   _sw        zero,0xc(a1)
                             LAB_00103db0                                    XREF[1]:     002ec85c(*)  
        00103db0 3c 07 06 0c  	   jal        MemoryAllocate                                   void * MemoryAllocate(uint memor
        00103db4 10 00 04 24  	   _li        a0,0x10
        00103db8 ff 00 04 3c  	   lui        a0,0xff
        00103dbc 30 00 05 3c  	   lui        a1,0x30
        00103dc0 80 3f 01 3c  	   lui        at,0x3f80
        00103dc4 00 00 81 44  	   mtc1       at,f0
        00103dc8 2d 18 40 00  	   move       v1,v0
        00103dcc 26 07 00 10  	   beq        zero,zero,LAB_00105a68
        00103dd0 f8 20 a5 24  	   _addiu     a1=>DAT_003020f8,a1,0x20f8
                             LAB_00103dd4                                    XREF[2]:     002ec678(*), 002ec67c(*)  
        00103dd4 3c 07 06 0c  	   jal        MemoryAllocate                                   void * MemoryAllocate(uint memor
        00103dd8 94 00 04 24  	   _li        a0,0x94
        00103ddc 30 00 04 3c  	   lui        a0,0x30
        00103de0 2d 80 40 00  	   move       s0,v0
        00103de4 b8 1d 84 24  	   addiu      a0,a0,0x1db8
        00103de8 ff 00 03 3c  	   lui        v1,0xff
        00103dec ff ff 63 34  	   ori        v1,v1,0xffff
        00103df0 08 00 04 ae  	   sw         a0=>DAT_00301db8,0x8(s0)
        00103df4 00 00 03 ae  	   sw         v1,0x0(s0)
        00103df8 0c 00 04 26  	   addiu      a0,s0,0xc
        00103dfc 04 00 00 ae  	   sw         zero,0x4(s0)
        00103e00 01 00 05 24  	   li         a1,0x1
        00103e04 89 0a 00 10  	   beq        zero,zero,LAB_0010682c
        00103e08 2d 30 00 00  	   _move      a2,zero
                             LAB_00103e0c                                    XREF[1]:     002ece34(*)  
        00103e0c 3c 07 06 0c  	   jal        MemoryAllocate                                   void * MemoryAllocate(uint memor
        00103e10 1c 00 04 24  	   _li        a0,0x1c
        00103e14 ff 00 05 3c  	   lui        a1,0xff
        00103e18 2f 00 04 3c  	   lui        a0,0x2f
        00103e1c 2d 18 40 00  	   move       v1,v0
        00103e20 88 ed 84 24  	   addiu      a0,a0,-0x1278
        00103e24 ff ff a5 34  	   ori        a1,a1,0xffff
        00103e28 08 00 64 ac  	   sw         a0=>DAT_002eed88,0x8(v1)
        00103e2c 00 00 65 ac  	   sw         a1,0x0(v1)
        00103e30 04 00 60 ac  	   sw         zero,0x4(v1)
        00103e34 0c 00 60 ac  	   sw         zero,0xc(v1)
        00103e38 10 00 60 ac  	   sw         zero,0x10(v1)
        00103e3c 14 00 60 a4  	   sh         zero,0x14(v1)
        00103e40 78 0b 00 10  	   beq        zero,zero,LAB_00106c24
        00103e44 18 00 60 ac  	   _sw        zero,0x18(v1)
                             LAB_00103e48                                    XREF[1]:     002ece44(*)  
        00103e48 3c 07 06 0c  	   jal        MemoryAllocate                                   void * MemoryAllocate(uint memor
        00103e4c 10 00 04 24  	   _li        a0,0x10
        00103e50 2d 18 40 00  	   move       v1,v0
        00103e54 2f 00 04 3c  	   lui        a0,0x2f
        00103e58 0c 00 66 8c  	   lw         a2,0xc(v1)
        00103e5c ff 00 02 3c  	   lui        v0,0xff
        00103e60 ff ff 42 34  	   ori        v0,v0,0xffff
        00103e64 fe ff 05 24  	   li         a1,-0x2
        00103e68 48 ed 84 24  	   addiu      a0,a0,-0x12b8
        00103e6c 24 30 c5 00  	   and        a2,a2,a1
        00103e70 00 00 62 ac  	   sw         v0,0x0(v1)
        00103e74 2d 10 60 00  	   move       v0,v1
        00103e78 6d 09 00 10  	   beq        zero,zero,LAB_00106430
        00103e7c 08 00 64 ac  	   _sw        a0=>DAT_002eed48,0x8(v1)
                             LAB_00103e80                                    XREF[1]:     002ecec8(*)  
        00103e80 3c 07 06 0c  	   jal        MemoryAllocate                                   void * MemoryAllocate(uint memor
        00103e84 10 00 04 24  	   _li        a0,0x10
        00103e88 2d 18 40 00  	   move       v1,v0
        00103e8c 2f 00 04 3c  	   lui        a0,0x2f
        00103e90 0c 00 66 8c  	   lw         a2,0xc(v1)
        00103e94 ff 00 02 3c  	   lui        v0,0xff
        00103e98 ff ff 42 34  	   ori        v0,v0,0xffff
        00103e9c fe ff 05 24  	   li         a1,-0x2
        00103ea0 08 ed 84 24  	   addiu      a0,a0,-0x12f8
        00103ea4 24 30 c5 00  	   and        a2,a2,a1
        00103ea8 00 00 62 ac  	   sw         v0,0x0(v1)
        00103eac 2d 10 60 00  	   move       v0,v1
        00103eb0 5f 09 00 10  	   beq        zero,zero,LAB_00106430
        00103eb4 08 00 64 ac  	   _sw        a0=>DAT_002eed08,0x8(v1)
                             LAB_00103eb8                                    XREF[1]:     002ec680(*)  
        00103eb8 3c 07 06 0c  	   jal        MemoryAllocate                                   void * MemoryAllocate(uint memor
        00103ebc 0c 00 04 24  	   _li        a0,0xc
        00103ec0 ff 00 03 3c  	   lui        v1,0xff
        00103ec4 30 00 04 3c  	   lui        a0,0x30
        00103ec8 2d 28 40 00  	   move       a1,v0
        00103ecc 4f 0b 00 10  	   beq        zero,zero,LAB_00106c0c
        00103ed0 78 1d 84 24  	   _addiu     a0,a0,0x1d78
                             LAB_00103ed4                                    XREF[1]:     002ec7a8(*)  
        00103ed4 3c 07 06 0c  	   jal        MemoryAllocate                                   void * MemoryAllocate(uint memor
        00103ed8 98 00 04 24  	   _li        a0,0x98
        00103edc 30 00 04 3c  	   lui        a0,0x30
        00103ee0 2d 80 40 00  	   move       s0,v0
        00103ee4 38 1c 84 24  	   addiu      a0,a0,0x1c38
        00103ee8 ff 00 03 3c  	   lui        v1,0xff
        00103eec ff ff 63 34  	   ori        v1,v1,0xffff
        00103ef0 08 00 04 ae  	   sw         a0=>DAT_00301c38,0x8(s0)
        00103ef4 00 00 03 ae  	   sw         v1,0x0(s0)
        00103ef8 10 00 04 26  	   addiu      a0,s0,0x10
        00103efc 04 00 00 ae  	   sw         zero,0x4(s0)
        00103f00 2d 28 00 00  	   move       a1,zero
        00103f04 0c 00 00 ae  	   sw         zero,0xc(s0)
        00103f08 48 0a 00 10  	   beq        zero,zero,LAB_0010682c
        00103f0c 2d 30 00 00  	   _move      a2,zero
                             LAB_00103f10                                    XREF[1]:     002ec7ac(*)  
        00103f10 3c 07 06 0c  	   jal        MemoryAllocate                                   void * MemoryAllocate(uint memor
        00103f14 0c 00 04 24  	   _li        a0,0xc
        00103f18 ff 00 03 3c  	   lui        v1,0xff
        00103f1c 30 00 04 3c  	   lui        a0,0x30
        00103f20 2d 28 40 00  	   move       a1,v0
        00103f24 39 0b 00 10  	   beq        zero,zero,LAB_00106c0c
        00103f28 f8 1b 84 24  	   _addiu     a0,a0,0x1bf8
                             LAB_00103f2c                                    XREF[1]:     002ec7b0(*)  
        00103f2c 3c 07 06 0c  	   jal        MemoryAllocate                                   void * MemoryAllocate(uint memor
        00103f30 0c 00 04 24  	   _li        a0,0xc
        00103f34 ff 00 03 3c  	   lui        v1,0xff
        00103f38 30 00 04 3c  	   lui        a0,0x30
        00103f3c 2d 28 40 00  	   move       a1,v0
        00103f40 32 0b 00 10  	   beq        zero,zero,LAB_00106c0c
        00103f44 b8 1b 84 24  	   _addiu     a0,a0,0x1bb8
                             LAB_00103f48                                    XREF[1]:     002ec7b4(*)  
        00103f48 3c 07 06 0c  	   jal        MemoryAllocate                                   void * MemoryAllocate(uint memor
        00103f4c 0c 00 04 24  	   _li        a0,0xc
        00103f50 ff 00 03 3c  	   lui        v1,0xff
        00103f54 30 00 04 3c  	   lui        a0,0x30
        00103f58 2d 28 40 00  	   move       a1,v0
        00103f5c 2b 0b 00 10  	   beq        zero,zero,LAB_00106c0c
        00103f60 78 1b 84 24  	   _addiu     a0,a0,0x1b78
                             LAB_00103f64                                    XREF[1]:     002ec7cc(*)  
        00103f64 3c 07 06 0c  	   jal        MemoryAllocate                                   void * MemoryAllocate(uint memor
        00103f68 10 00 04 24  	   _li        a0,0x10
        00103f6c 2d 18 40 00  	   move       v1,v0
        00103f70 01 00 07 3c  	   lui        a3,0x1
        00103f74 0c 00 60 a4  	   sh         zero,0xc(v1)
        00103f78 30 00 02 3c  	   lui        v0,0x30
        00103f7c 78 20 42 24  	   addiu      v0,v0,0x2078
        00103f80 ff 00 05 3c  	   lui        a1,0xff
        00103f84 0c 00 64 8c  	   lw         a0,0xc(v1)
        00103f88 fe 01 06 3c  	   lui        a2,0x1fe
        00103f8c ff ff a5 34  	   ori        a1,a1,0xffff
        00103f90 08 00 62 ac  	   sw         v0=>DAT_00302078,0x8(v1)
        00103f94 25 20 87 00  	   or         a0,a0,a3
        00103f98 00 00 65 ac  	   sw         a1,0x0(v1)
        00103f9c 25 20 86 00  	   or         a0,a0,a2
        00103fa0 0b 0a 00 10  	   beq        zero,zero,LAB_001067d0
        00103fa4 2d 10 60 00  	   _move      v0,v1
                             LAB_00103fa8                                    XREF[1]:     002ec738(*)  
        00103fa8 3c 07 06 0c  	   jal        MemoryAllocate                                   void * MemoryAllocate(uint memor
        00103fac 1c 00 04 24  	   _li        a0,0x1c
        00103fb0 ff 00 05 3c  	   lui        a1,0xff
        00103fb4 30 00 04 3c  	   lui        a0,0x30
        00103fb8 2d 18 40 00  	   move       v1,v0
        00103fbc 38 1d 84 24  	   addiu      a0,a0,0x1d38
        00103fc0 ff ff a5 34  	   ori        a1,a1,0xffff
        00103fc4 08 00 64 ac  	   sw         a0=>DAT_00301d38,0x8(v1)
        00103fc8 00 00 65 ac  	   sw         a1,0x0(v1)
        00103fcc 04 00 60 ac  	   sw         zero,0x4(v1)
        00103fd0 0c 00 60 ac  	   sw         zero,0xc(v1)
        00103fd4 10 00 60 ac  	   sw         zero,0x10(v1)
        00103fd8 14 00 60 ac  	   sw         zero,0x14(v1)
        00103fdc 11 0b 00 10  	   beq        zero,zero,LAB_00106c24
        00103fe0 18 00 60 ac  	   _sw        zero,0x18(v1)
                             LAB_00103fe4                                    XREF[1]:     002ec73c(*)  
        00103fe4 3c 07 06 0c  	   jal        MemoryAllocate                                   void * MemoryAllocate(uint memor
        00103fe8 0c 00 04 24  	   _li        a0,0xc
        00103fec ff 00 03 3c  	   lui        v1,0xff
        00103ff0 30 00 04 3c  	   lui        a0,0x30
        00103ff4 2d 28 40 00  	   move       a1,v0
        00103ff8 04 0b 00 10  	   beq        zero,zero,LAB_00106c0c
        00103ffc f8 1c 84 24  	   _addiu     a0,a0,0x1cf8
                             LAB_00104000                                    XREF[1]:     002ece5c(*)  
        00104000 3c 07 06 0c  	   jal        MemoryAllocate                                   void * MemoryAllocate(uint memor
        00104004 10 00 04 24  	   _li        a0,0x10
        00104008 2d 28 40 00  	   move       a1,v0
        0010400c fc ff 04 24  	   li         a0,-0x4
        00104010 0c 00 a3 8c  	   lw         v1,0xc(a1)
        00104014 f3 ff 06 24  	   li         a2,-0xd
        00104018 cf ff 07 24  	   li         a3,-0x31
        0010401c 3f ff 08 24  	   li         t0,-0xc1
        00104020 24 18 64 00  	   and        v1,v1,a0
        00104024 ff 00 02 3c  	   lui        v0,0xff
        00104028 24 18 66 00  	   and        v1,v1,a2
        0010402c ff ff 42 34  	   ori        v0,v0,0xffff
        00104030 24 18 67 00  	   and        v1,v1,a3
        00104034 2f 00 04 3c  	   lui        a0,0x2f
        00104038 ff fc 06 24  	   li         a2,-0x301
        0010403c 24 18 68 00  	   and        v1,v1,t0
        00104040 30 06 00 10  	   beq        zero,zero,LAB_00105904
        00104044 c8 ec 84 24  	   _addiu     a0,a0,-0x1338
                             LAB_00104048                                    XREF[1]:     002ec7d0(*)  
        00104048 3c 07 06 0c  	   jal        MemoryAllocate                                   void * MemoryAllocate(uint memor
        0010404c 30 00 04 24  	   _li        a0,0x30
        00104050 ff 00 04 3c  	   lui        a0,0xff
        00104054 30 00 05 3c  	   lui        a1,0x30
        00104058 2d 18 40 00  	   move       v1,v0
        0010405c 80 3f 01 3c  	   lui        at,0x3f80
        00104060 00 00 81 44  	   mtc1       at,f0
        00104064 38 1b a5 24  	   addiu      a1=>DAT_00301b38,a1,0x1b38
        00104068 ff ff 84 34  	   ori        a0,a0,0xffff
        0010406c 00 00 64 ac  	   sw         a0,0x0(v1)
        00104070 10 00 66 24  	   addiu      a2,v1,0x10
        00104074 08 00 65 ac  	   sw         a1=>DAT_00301b38,0x8(v1)
        00104078 04 00 60 ac  	   sw         zero,0x4(v1)
        0010407c 10 00 60 ac  	   sw         zero,0x10(v1)
        00104080 0c 00 c0 e4  	   swc1       f0,0xc(a2)
        00104084 04 00 c0 ac  	   sw         zero,0x4(a2)
        00104088 08 00 c0 ac  	   sw         zero,0x8(a2)
        0010408c 20 00 60 e4  	   swc1       f0,0x20(v1)
        00104090 24 00 60 ac  	   sw         zero,0x24(v1)
        00104094 e3 0a 00 10  	   beq        zero,zero,LAB_00106c24
        00104098 28 00 60 a0  	   _sb        zero,0x28(v1)
                             LAB_0010409c                                    XREF[2]:     002ec5ec(*), 002ec630(*)  
        0010409c 3c 07 06 0c  	   jal        MemoryAllocate                                   void * MemoryAllocate(uint memor
        001040a0 30 00 04 24  	   _li        a0,0x30
        001040a4 30 00 03 3c  	   lui        v1,0x30
        001040a8 2d 80 40 00  	   move       s0,v0
        001040ac b8 1a 63 24  	   addiu      v1,v1,0x1ab8
        001040b0 ff 8f 04 3c  	   lui        a0,0x8fff
        001040b4 ff ff 84 34  	   ori        a0,a0,0xffff
        001040b8 38 21 04 00  	   dsll       a0,a0,0x4
        001040bc 0f 00 84 34  	   ori        a0,a0,0xf
        001040c0 08 00 03 ae  	   sw         v1=>DAT_00301ab8,0x8(s0)
        001040c4 00 ff 05 34  	   ori        a1,zero,0xff00
        001040c8 f8 2e 05 00  	   dsll       a1,a1,0x1b
        001040cc ff 87 06 3c  	   lui        a2,0x87ff
        001040d0 ff ff c6 34  	   ori        a2,a2,0xffff
        001040d4 38 34 06 00  	   dsll       a2,a2,0x10
        001040d8 ff ff c6 34  	   ori        a2,a2,0xffff
        001040dc ff bf 07 3c  	   lui        a3,0xbfff
        001040e0 ff ff e7 34  	   ori        a3,a3,0xffff
        001040e4 38 3c 07 00  	   dsll       a3,a3,0x10
        001040e8 ff ff e7 34  	   ori        a3,a3,0xffff
        001040ec 78 38 07 00  	   dsll       a3,a3,0x1
        001040f0 01 00 e7 34  	   ori        a3,a3,0x1
        001040f4 08 00 02 de  	   ld         v0,0x8(s0)
        001040f8 fe ff 08 34  	   ori        t0,zero,0xfffe
        001040fc 38 44 08 00  	   dsll       t0,t0,0x10
        00104100 ff ff 08 35  	   ori        t0,t0,0xffff
        00104104 38 44 08 00  	   dsll       t0,t0,0x10
        00104108 ff ff 08 35  	   ori        t0,t0,0xffff
        0010410c 38 44 08 00  	   dsll       t0,t0,0x10
        00104110 ff ff 08 35  	   ori        t0,t0,0xffff
        00104114 00 f0 09 34  	   ori        t1,zero,0xf000
        00104118 7c 49 09 00  	   dsll32     t1,t1,0x5
        0010411c df ff 0a 34  	   ori        t2,zero,0xffdf
        00104120 38 54 0a 00  	   dsll       t2,t2,0x10
        00104124 ff ff 4a 35  	   ori        t2,t2,0xffff
        00104128 38 54 0a 00  	   dsll       t2,t2,0x10
        0010412c ff ff 4a 35  	   ori        t2,t2,0xffff
        00104130 38 54 0a 00  	   dsll       t2,t2,0x10
        00104134 ff ff 4a 35  	   ori        t2,t2,0xffff
        00104138 24 10 44 00  	   and        v0,v0,a0
        0010413c bf ff 0b 34  	   ori        t3,zero,0xffbf
        00104140 38 5c 0b 00  	   dsll       t3,t3,0x10
        00104144 ff ff 6b 35  	   ori        t3,t3,0xffff
        00104148 38 5c 0b 00  	   dsll       t3,t3,0x10
        0010414c ff ff 6b 35  	   ori        t3,t3,0xffff
        00104150 38 5c 0b 00  	   dsll       t3,t3,0x10
        00104154 ff ff 6b 35  	   ori        t3,t3,0xffff
        00104158 25 10 45 00  	   or         v0,v0,a1
        0010415c ff 00 03 3c  	   lui        v1,0xff
        00104160 24 10 46 00  	   and        v0,v0,a2
        00104164 ff ff 63 34  	   ori        v1,v1,0xffff
        00104168 24 10 47 00  	   and        v0,v0,a3
        0010416c 7f ff 04 34  	   ori        a0,zero,0xff7f
        00104170 38 24 04 00  	   dsll       a0,a0,0x10
        00104174 ff ff 84 34  	   ori        a0,a0,0xffff
        00104178 38 24 04 00  	   dsll       a0,a0,0x10
        0010417c ff ff 84 34  	   ori        a0,a0,0xffff
        00104180 38 24 04 00  	   dsll       a0,a0,0x10
        00104184 ff ff 84 34  	   ori        a0,a0,0xffff
        00104188 24 10 48 00  	   and        v0,v0,t0
        0010418c 00 00 03 ae  	   sw         v1,0x0(s0)
        00104190 25 10 49 00  	   or         v0,v0,t1
        00104194 10 00 03 26  	   addiu      v1,s0,0x10
        00104198 24 10 4a 00  	   and        v0,v0,t2
        0010419c 04 00 00 ae  	   sw         zero,0x4(s0)
        001041a0 30 02 00 10  	   beq        zero,zero,LAB_00104a64
        001041a4 24 10 4b 00  	   _and       v0,v0,t3
                             LAB_001041a8                                    XREF[1]:     002ec670(*)  
        001041a8 3c 07 06 0c  	   jal        MemoryAllocate                                   void * MemoryAllocate(uint memor
        001041ac 50 00 04 24  	   _li        a0,0x50
        001041b0 2d 18 40 00  	   move       v1,v0
        001041b4 f0 ff 04 24  	   li         a0,-0x10
        001041b8 30 00 62 dc  	   ld         v0,0x30(v1)
        001041bc 02 00 05 24  	   li         a1,0x2
        001041c0 0f 00 06 3c  	   lui        a2,0xf
        001041c4 f0 ff c6 34  	   ori        a2,a2,0xfff0
        001041c8 ef ff 07 3c  	   lui        a3,0xffef
        001041cc ff ff e7 34  	   ori        a3,a3,0xffff
        001041d0 24 10 44 00  	   and        v0,v0,a0
        001041d4 df ff 08 3c  	   lui        t0,0xffdf
        001041d8 ff ff 08 35  	   ori        t0,t0,0xffff
        001041dc 25 10 45 00  	   or         v0,v0,a1
        001041e0 bf ff 09 3c  	   lui        t1,0xffbf
        001041e4 ff ff 29 35  	   ori        t1,t1,0xffff
        001041e8 25 10 46 00  	   or         v0,v0,a2
        001041ec 7f ff 0a 3c  	   lui        t2,0xff7f
        001041f0 ff ff 4a 35  	   ori        t2,t2,0xffff
        001041f4 24 10 47 00  	   and        v0,v0,a3
        001041f8 ff 00 04 3c  	   lui        a0,0xff
        001041fc 24 10 48 00  	   and        v0,v0,t0
        00104200 30 00 05 3c  	   lui        a1,0x30
        00104204 24 10 49 00  	   and        v0,v0,t1
        00104208 ff 00 06 24  	   li         a2,0xff
        0010420c 24 10 4a 00  	   and        v0,v0,t2
        00104210 78 1a a5 24  	   addiu      a1=>DAT_00301a78,a1,0x1a78
        00104214 30 00 62 fc  	   sd         v0,0x30(v1)
        00104218 ff ff 84 34  	   ori        a0,a0,0xffff
        0010421c 00 00 64 ac  	   sw         a0,0x0(v1)
        00104220 2d 10 60 00  	   move       v0,v1
        00104224 08 00 65 ac  	   sw         a1=>DAT_00301a78,0x8(v1)
        00104228 35 00 66 a0  	   sb         a2,0x35(v1)
        0010422c 04 00 60 ac  	   sw         zero,0x4(v1)
        00104230 7c 0a 00 10  	   beq        zero,zero,LAB_00106c24
        00104234 34 00 66 a0  	   _sb        a2,0x34(v1)
                             LAB_00104238                                    XREF[1]:     002ec674(*)  
        00104238 3c 07 06 0c  	   jal        MemoryAllocate                                   void * MemoryAllocate(uint memor
        0010423c 0c 00 04 24  	   _li        a0,0xc
        00104240 ff 00 03 3c  	   lui        v1,0xff
        00104244 30 00 04 3c  	   lui        a0,0x30
        00104248 2d 28 40 00  	   move       a1,v0
        0010424c 6f 0a 00 10  	   beq        zero,zero,LAB_00106c0c
        00104250 38 1a 84 24  	   _addiu     a0,a0,0x1a38
                             LAB_00104254                                    XREF[1]:     002ec5f0(*)  
        00104254 3c 07 06 0c  	   jal        MemoryAllocate                                   void * MemoryAllocate(uint memor
        00104258 30 00 04 24  	   _li        a0,0x30
        0010425c 2d 80 40 00  	   move       s0,v0
        00104260 30 00 03 3c  	   lui        v1,0x30
        00104264 f8 19 63 24  	   addiu      v1,v1,0x19f8
        00104268 ff ff 02 34  	   ori        v0,zero,0xffff
        0010426c ff 00 04 24  	   li         a0,0xff
        00104270 08 00 03 ae  	   sw         v1=>DAT_003019f8,0x8(s0)
        00104274 0e 00 04 a2  	   sb         a0,0xe(s0)
        00104278 ff f8 05 34  	   ori        a1,zero,0xf8ff
        0010427c 38 2c 05 00  	   dsll       a1,a1,0x10
        00104280 ff ff a5 34  	   ori        a1,a1,0xffff
        00104284 38 2c 05 00  	   dsll       a1,a1,0x10
        00104288 ff ff a5 34  	   ori        a1,a1,0xffff
        0010428c 38 2c 05 00  	   dsll       a1,a1,0x10
        00104290 ff ff a5 34  	   ori        a1,a1,0xffff
        00104294 0c 00 02 a6  	   sh         v0,0xc(s0)
        00104298 ff f7 06 34  	   ori        a2,zero,0xf7ff
        0010429c 38 34 06 00  	   dsll       a2,a2,0x10
        001042a0 ff ff c6 34  	   ori        a2,a2,0xffff
        001042a4 38 34 06 00  	   dsll       a2,a2,0x10
        001042a8 ff ff c6 34  	   ori        a2,a2,0xffff
        001042ac 38 34 06 00  	   dsll       a2,a2,0x10
        001042b0 ff ff c6 34  	   ori        a2,a2,0xffff
        001042b4 ff ef 07 34  	   ori        a3,zero,0xefff
        001042b8 38 3c 07 00  	   dsll       a3,a3,0x10
        001042bc ff ff e7 34  	   ori        a3,a3,0xffff
        001042c0 38 3c 07 00  	   dsll       a3,a3,0x10
        001042c4 ff ff e7 34  	   ori        a3,a3,0xffff
        001042c8 38 3c 07 00  	   dsll       a3,a3,0x10
        001042cc ff ff e7 34  	   ori        a3,a3,0xffff
        001042d0 ff 00 03 3c  	   lui        v1,0xff
        001042d4 08 00 02 de  	   ld         v0,0x8(s0)
        001042d8 ff ff 63 34  	   ori        v1,v1,0xffff
        001042dc ff df 04 34  	   ori        a0,zero,0xdfff
        001042e0 38 24 04 00  	   dsll       a0,a0,0x10
        001042e4 ff ff 84 34  	   ori        a0,a0,0xffff
        001042e8 38 24 04 00  	   dsll       a0,a0,0x10
        001042ec ff ff 84 34  	   ori        a0,a0,0xffff
        001042f0 38 24 04 00  	   dsll       a0,a0,0x10
        001042f4 ff ff 84 34  	   ori        a0,a0,0xffff
        001042f8 00 00 03 ae  	   sw         v1,0x0(s0)
        001042fc 24 10 45 00  	   and        v0,v0,a1
        00104300 10 00 03 26  	   addiu      v1,s0,0x10
        00104304 24 10 46 00  	   and        v0,v0,a2
        00104308 04 00 00 ae  	   sw         zero,0x4(s0)
        0010430c d5 01 00 10  	   beq        zero,zero,LAB_00104a64
        00104310 24 10 47 00  	   _and       v0,v0,a3
                             LAB_00104314                                    XREF[1]:     002ec5f4(*)  
        00104314 80 3f 01 3c  	   lui        at,0x3f80
        00104318 00 a0 81 44  	   mtc1       at,f20
        0010431c 3c 07 06 0c  	   jal        MemoryAllocate                                   void * MemoryAllocate(uint memor
        00104320 30 00 04 24  	   _li        a0,0x30
        00104324 2d 80 40 00  	   move       s0,v0
        00104328 30 00 03 3c  	   lui        v1,0x30
        0010432c 78 19 63 24  	   addiu      v1,v1,0x1978
        00104330 ff 00 02 24  	   li         v0,0xff
        00104334 08 00 03 ae  	   sw         v1=>DAT_00301978,0x8(s0)
        00104338 ff 87 04 3c  	   lui        a0,0x87ff
        0010433c ff ff 84 34  	   ori        a0,a0,0xffff
        00104340 78 23 04 00  	   dsll       a0,a0,0xd
        00104344 ff 1f 84 34  	   ori        a0,a0,0x1fff
        00104348 0c 00 02 a2  	   sb         v0,0xc(s0)
        0010434c 00 ff 05 34  	   ori        a1,zero,0xff00
        00104350 3c 29 05 00  	   dsll32     a1,a1,0x4
        00104354 00 ff 06 34  	   ori        a2,zero,0xff00
        00104358 3c 33 06 00  	   dsll32     a2,a2,0xc
        0010435c ff ef 07 34  	   ori        a3,zero,0xefff
        00104360 38 3c 07 00  	   dsll       a3,a3,0x10
        00104364 ff ff e7 34  	   ori        a3,a3,0xffff
        00104368 38 3c 07 00  	   dsll       a3,a3,0x10
        0010436c ff ff e7 34  	   ori        a3,a3,0xffff
        00104370 38 3c 07 00  	   dsll       a3,a3,0x10
        00104374 ff ff e7 34  	   ori        a3,a3,0xffff
        00104378 08 00 02 de  	   ld         v0,0x8(s0)
        0010437c ff df 08 34  	   ori        t0,zero,0xdfff
        00104380 38 44 08 00  	   dsll       t0,t0,0x10
        00104384 ff ff 08 35  	   ori        t0,t0,0xffff
        00104388 38 44 08 00  	   dsll       t0,t0,0x10
        0010438c ff ff 08 35  	   ori        t0,t0,0xffff
        00104390 38 44 08 00  	   dsll       t0,t0,0x10
        00104394 ff ff 08 35  	   ori        t0,t0,0xffff
        00104398 ff bf 0a 34  	   ori        t2,zero,0xbfff
        0010439c 38 54 0a 00  	   dsll       t2,t2,0x10
        001043a0 ff ff 4a 35  	   ori        t2,t2,0xffff
        001043a4 38 54 0a 00  	   dsll       t2,t2,0x10
        001043a8 ff ff 4a 35  	   ori        t2,t2,0xffff
        001043ac 38 54 0a 00  	   dsll       t2,t2,0x10
        001043b0 ff ff 4a 35  	   ori        t2,t2,0xffff
        001043b4 ff 00 03 3c  	   lui        v1,0xff
        001043b8 24 10 44 00  	   and        v0,v0,a0
        001043bc ff ff 09 24  	   li         t1,-0x1
        001043c0 7a 48 09 00  	   dsrl       t1,t1,0x1
        001043c4 25 10 45 00  	   or         v0,v0,a1
        001043c8 ff ff 63 34  	   ori        v1,v1,0xffff
        001043cc 25 10 46 00  	   or         v0,v0,a2
        001043d0 00 00 03 ae  	   sw         v1,0x0(s0)
        001043d4 24 10 47 00  	   and        v0,v0,a3
        001043d8 10 00 03 26  	   addiu      v1,s0,0x10
        001043dc 24 10 48 00  	   and        v0,v0,t0
        001043e0 04 00 00 ae  	   sw         zero,0x4(s0)
        001043e4 24 10 4a 00  	   and        v0,v0,t2
        001043e8 10 00 00 ae  	   sw         zero,0x10(s0)
        001043ec 24 10 49 00  	   and        v0,v0,t1
        001043f0 80 bf 01 3c  	   lui        at,0xbf80
        001043f4 00 60 81 44  	   mtc1       at,f12
        001043f8 08 00 02 fe  	   sd         v0,0x8(s0)
        001043fc 20 00 04 26  	   addiu      a0,s0,0x20
        00104400 0c 00 74 e4  	   swc1       f20,0xc(v1)
        00104404 04 00 60 ac  	   sw         zero,0x4(v1)
        00104408 36 26 08 0c  	   jal        FUN_002098d8                                     undefined8 FUN_002098d8(uint par
        0010440c 08 00 60 ac  	   _sw        zero,0x8(v1)
        00104410 06 a3 00 46  	   mov.S      f12,f20
        00104414 36 26 08 0c  	   jal        FUN_002098d8                                     undefined8 FUN_002098d8(uint par
        00104418 24 00 04 26  	   _addiu     a0,s0,0x24
        0010441c 2d 10 00 02  	   move       v0,s0
        00104420 00 0a 00 10  	   beq        zero,zero,LAB_00106c24
        00104424 28 00 00 ae  	   _sw        zero,0x28(s0)
                             LAB_00104428                                    XREF[1]:     002ec664(*)  
        00104428 3c 07 06 0c  	   jal        MemoryAllocate                                   void * MemoryAllocate(uint memor
        0010442c 0c 00 04 24  	   _li        a0,0xc
        00104430 ff 00 03 3c  	   lui        v1,0xff
        00104434 30 00 04 3c  	   lui        a0,0x30
        00104438 2d 28 40 00  	   move       a1,v0
        0010443c f3 09 00 10  	   beq        zero,zero,LAB_00106c0c
        00104440 b8 18 84 24  	   _addiu     a0,a0,0x18b8
                             LAB_00104444                                    XREF[1]:     002ec65c(*)  
        00104444 3c 07 06 0c  	   jal        MemoryAllocate                                   void * MemoryAllocate(uint memor
        00104448 10 00 04 24  	   _li        a0,0x10
        0010444c 2d 18 40 00  	   move       v1,v0
        00104450 ff 00 05 3c  	   lui        a1,0xff
        00104454 ff 00 02 24  	   li         v0,0xff
        00104458 ff fe 06 24  	   li         a2,-0x101
        0010445c 0c 00 62 a0  	   sb         v0,0xc(v1)
        00104460 ff ff a5 34  	   ori        a1,a1,0xffff
        00104464 30 00 02 3c  	   lui        v0,0x30
        00104468 00 00 65 ac  	   sw         a1,0x0(v1)
        0010446c 0c 00 64 8c  	   lw         a0,0xc(v1)
        00104470 18 d9 42 24  	   addiu      v0,v0,-0x26e8
        00104474 08 00 62 ac  	   sw         v0=>DAT_002fd918,0x8(v1)
        00104478 24 20 86 00  	   and        a0,a0,a2
        0010447c d4 08 00 10  	   beq        zero,zero,LAB_001067d0
        00104480 2d 10 60 00  	   _move      v0,v1
                             LAB_00104484                                    XREF[1]:     002ec7c4(*)  
        00104484 3c 07 06 0c  	   jal        MemoryAllocate                                   void * MemoryAllocate(uint memor
        00104488 40 00 04 24  	   _li        a0,0x40
        0010448c ff 00 03 3c  	   lui        v1,0xff
        00104490 30 00 05 3c  	   lui        a1,0x30
        00104494 2d 20 40 00  	   move       a0,v0
        00104498 f8 17 a5 24  	   addiu      a1,a1,0x17f8
        0010449c ff ff 63 34  	   ori        v1,v1,0xffff
        001044a0 80 3f 01 3c  	   lui        at,0x3f80
        001044a4 00 00 81 44  	   mtc1       at,f0
        001044a8 00 00 83 ac  	   sw         v1,0x0(a0)
        001044ac 20 00 86 24  	   addiu      a2,a0,0x20
        001044b0 08 00 85 ac  	   sw         a1=>DAT_003017f8,0x8(a0)
        001044b4 fe ff 07 24  	   li         a3,-0x2
        001044b8 04 00 80 ac  	   sw         zero,0x4(a0)
        001044bc fd ff 05 24  	   li         a1,-0x3
        001044c0 0c 00 80 ac  	   sw         zero,0xc(a0)
        001044c4 10 00 80 ac  	   sw         zero,0x10(a0)
        001044c8 14 00 80 ac  	   sw         zero,0x14(a0)
        001044cc 20 00 80 ac  	   sw         zero,0x20(a0)
        001044d0 0c 00 c0 e4  	   swc1       f0,0xc(a2)
        001044d4 04 00 c0 ac  	   sw         zero,0x4(a2)
        001044d8 08 00 c0 ac  	   sw         zero,0x8(a2)
        001044dc 30 00 83 dc  	   ld         v1,0x30(a0)
        001044e0 24 18 67 00  	   and        v1,v1,a3
        001044e4 24 18 65 00  	   and        v1,v1,a1
        001044e8 ce 09 00 10  	   beq        zero,zero,LAB_00106c24
        001044ec 30 00 83 fc  	   _sd        v1,0x30(a0)
                             LAB_001044f0                                    XREF[1]:     002ec858(*)  
        001044f0 3c 07 06 0c  	   jal        MemoryAllocate                                   void * MemoryAllocate(uint memor
        001044f4 0c 00 04 24  	   _li        a0,0xc
        001044f8 ff 00 03 3c  	   lui        v1,0xff
        001044fc 30 00 04 3c  	   lui        a0,0x30
        00104500 2d 28 40 00  	   move       a1,v0
        00104504 c1 09 00 10  	   beq        zero,zero,LAB_00106c0c
        00104508 b8 17 84 24  	   _addiu     a0,a0,0x17b8
                             LAB_0010450c                                    XREF[1]:     002ec640(*)  
        0010450c 3c 07 06 0c  	   jal        MemoryAllocate                                   void * MemoryAllocate(uint memor
        00104510 14 00 04 24  	   _li        a0,0x14
        00104514 2d 28 40 00  	   move       a1,v0
        00104518 ff 00 03 24  	   li         v1,0xff
        0010451c ff ff 02 34  	   ori        v0,zero,0xffff
        00104520 0e 00 a3 a0  	   sb         v1,0xe(a1)
        00104524 0c 00 a2 a4  	   sh         v0,0xc(a1)
        00104528 ff fe 06 3c  	   lui        a2,0xfeff
        0010452c ff ff c6 34  	   ori        a2,a2,0xffff
        00104530 ff fd 07 3c  	   lui        a3,0xfdff
        00104534 0c 00 a3 8c  	   lw         v1,0xc(a1)
        00104538 ff ff e7 34  	   ori        a3,a3,0xffff
        0010453c ff fb 02 3c  	   lui        v0,0xfbff
        00104540 ff 00 08 3c  	   lui        t0,0xff
        00104544 24 18 66 00  	   and        v1,v1,a2
        00104548 ff ff 42 34  	   ori        v0,v0,0xffff
        0010454c 30 00 04 3c  	   lui        a0,0x30
        00104550 24 18 67 00  	   and        v1,v1,a3
        00104554 24 18 62 00  	   and        v1,v1,v0
        00104558 18 f1 84 24  	   addiu      a0,a0,-0xee8
        0010455c ff ff 08 35  	   ori        t0,t0,0xffff
        00104560 08 00 a4 ac  	   sw         a0=>DAT_002ff118,0x8(a1)
        00104564 00 00 a8 ac  	   sw         t0,0x0(a1)
        00104568 2d 10 a0 00  	   move       v0,a1
        0010456c 0c 00 a3 ac  	   sw         v1,0xc(a1)
        00104570 04 00 a0 ac  	   sw         zero,0x4(a1)
        00104574 ab 09 00 10  	   beq        zero,zero,LAB_00106c24
        00104578 10 00 a0 ac  	   _sw        zero,0x10(a1)
                             LAB_0010457c                                    XREF[1]:     002ec644(*)  
        0010457c 3c 07 06 0c  	   jal        MemoryAllocate                                   void * MemoryAllocate(uint memor
        00104580 18 00 04 24  	   _li        a0,0x18
        00104584 2d 18 40 00  	   move       v1,v0
        00104588 ff ff 08 34  	   ori        t0,zero,0xffff
        0010458c ff 00 04 24  	   li         a0,0xff
        00104590 0c 00 68 a4  	   sh         t0,0xc(v1)
        00104594 0e 00 64 a0  	   sb         a0,0xe(v1)
        00104598 ff fe 02 3c  	   lui        v0,0xfeff
        0010459c ff ff 42 34  	   ori        v0,v0,0xffff
        001045a0 ff fd 04 3c  	   lui        a0,0xfdff
        001045a4 0c 00 66 8c  	   lw         a2,0xc(v1)
        001045a8 ff 00 05 3c  	   lui        a1,0xff
        001045ac 30 00 07 3c  	   lui        a3,0x30
        001045b0 ff ff 84 34  	   ori        a0,a0,0xffff
        001045b4 24 30 c2 00  	   and        a2,a2,v0
        001045b8 d8 f0 e7 24  	   addiu      a3=>DAT_002ff0d8,a3,-0xf28
        001045bc 24 30 c4 00  	   and        a2,a2,a0
        001045c0 ff ff a5 34  	   ori        a1,a1,0xffff
        001045c4 00 00 65 ac  	   sw         a1,0x0(v1)
        001045c8 2d 10 60 00  	   move       v0,v1
        001045cc 08 00 67 ac  	   sw         a3=>DAT_002ff0d8,0x8(v1)
        001045d0 0c 00 66 ac  	   sw         a2,0xc(v1)
        001045d4 2a 06 00 10  	   beq        zero,zero,LAB_00105e80
        001045d8 14 00 68 a4  	   _sh        t0,0x14(v1)
                             LAB_001045dc                                    XREF[1]:     002ec7b8(*)  
        001045dc 3c 07 06 0c  	   jal        MemoryAllocate                                   void * MemoryAllocate(uint memor
        001045e0 14 00 04 24  	   _li        a0,0x14
        001045e4 ff 00 04 3c  	   lui        a0,0xff
        001045e8 30 00 05 3c  	   lui        a1,0x30
        001045ec 2d 18 40 00  	   move       v1,v0
        001045f0 98 f0 a5 24  	   addiu      a1=>DAT_002ff098,a1,-0xf68
        001045f4 ff ff 84 34  	   ori        a0,a0,0xffff
        001045f8 ff 00 06 24  	   li         a2,0xff
        001045fc 00 00 64 ac  	   sw         a0,0x0(v1)
        00104600 08 00 65 ac  	   sw         a1=>DAT_002ff098,0x8(v1)
        00104604 1e 06 00 10  	   beq        zero,zero,LAB_00105e80
        00104608 0c 00 66 a0  	   _sb        a2,0xc(v1)
                             LAB_0010460c                                    XREF[1]:     002ec7d8(*)  
        0010460c 3c 07 06 0c  	   jal        MemoryAllocate                                   void * MemoryAllocate(uint memor
        00104610 18 00 04 24  	   _li        a0,0x18
        00104614 ff 00 04 3c  	   lui        a0,0xff
        00104618 30 00 05 3c  	   lui        a1,0x30
        0010461c 2d 18 40 00  	   move       v1,v0
        00104620 58 f0 a5 24  	   addiu      a1=>DAT_002ff058,a1,-0xfa8
        00104624 ff ff 84 34  	   ori        a0,a0,0xffff
        00104628 ff 00 06 24  	   li         a2,0xff
        0010462c ff 00 07 24  	   li         a3,0xff
        00104630 00 00 64 ac  	   sw         a0,0x0(v1)
        00104634 08 00 65 ac  	   sw         a1=>DAT_002ff058,0x8(v1)
        00104638 0c 00 66 a0  	   sb         a2,0xc(v1)
        0010463c 10 00 67 ac  	   sw         a3,0x10(v1)
        00104640 04 00 60 ac  	   sw         zero,0x4(v1)
        00104644 77 09 00 10  	   beq        zero,zero,LAB_00106c24
        00104648 14 00 60 ac  	   _sw        zero,0x14(v1)
                             LAB_0010464c                                    XREF[1]:     002ec6b4(*)  
        0010464c 3c 07 06 0c  	   jal        MemoryAllocate                                   void * MemoryAllocate(uint memor
        00104650 0c 00 04 24  	   _li        a0,0xc
        00104654 ff 00 03 3c  	   lui        v1,0xff
        00104658 30 00 04 3c  	   lui        a0,0x30
        0010465c 2d 28 40 00  	   move       a1,v0
        00104660 6a 09 00 10  	   beq        zero,zero,LAB_00106c0c
        00104664 98 e1 84 24  	   _addiu     a0,a0,-0x1e68
                             LAB_00104668                                    XREF[1]:     002ec590(*)  
        00104668 3c 07 06 0c  	   jal        MemoryAllocate                                   void * MemoryAllocate(uint memor
        0010466c 10 00 04 24  	   _li        a0,0x10
        00104670 2d 28 40 00  	   move       a1,v0
        00104674 f8 ff 06 24  	   li         a2,-0x8
        00104678 0c 00 a4 8c  	   lw         a0,0xc(a1)
        0010467c ff 00 02 3c  	   lui        v0,0xff
        00104680 ff ff 42 34  	   ori        v0,v0,0xffff
        00104684 30 00 03 3c  	   lui        v1,0x30
        00104688 24 20 86 00  	   and        a0,a0,a2
        0010468c 85 06 00 10  	   beq        zero,zero,LAB_001060a4
        00104690 f8 1a 63 24  	   _addiu     v1,v1,0x1af8
                             LAB_00104694                                    XREF[1]:     002ec79c(*)  
        00104694 3c 07 06 0c  	   jal        MemoryAllocate                                   void * MemoryAllocate(uint memor
        00104698 10 00 04 24  	   _li        a0,0x10
        0010469c 2d 18 40 00  	   move       v1,v0
        001046a0 ff fe 05 24  	   li         a1,-0x101
        001046a4 ff 00 02 24  	   li         v0,0xff
        001046a8 ff fd 07 24  	   li         a3,-0x201
        001046ac 0c 00 62 a0  	   sb         v0,0xc(v1)
        001046b0 ff fb 08 24  	   li         t0,-0x401
        001046b4 ff f7 09 24  	   li         t1,-0x801
        001046b8 ff 8f 0a 24  	   li         t2,-0x7001
        001046bc 0c 00 62 8c  	   lw         v0,0xc(v1)
        001046c0 ff ff 06 3c  	   lui        a2,0xffff
        001046c4 ff 7f c6 34  	   ori        a2,a2,0x7fff
        001046c8 ff 00 04 3c  	   lui        a0,0xff
        001046cc 24 10 45 00  	   and        v0,v0,a1
        001046d0 ff ff 84 34  	   ori        a0,a0,0xffff
        001046d4 24 10 47 00  	   and        v0,v0,a3
        001046d8 30 00 05 3c  	   lui        a1,0x30
        001046dc 24 10 48 00  	   and        v0,v0,t0
        001046e0 18 ed a5 24  	   addiu      a1=>DAT_002fed18,a1,-0x12e8
        001046e4 24 10 49 00  	   and        v0,v0,t1
        001046e8 00 00 64 ac  	   sw         a0,0x0(v1)
        001046ec 24 10 4a 00  	   and        v0,v0,t2
        001046f0 08 00 65 ac  	   sw         a1=>DAT_002fed18,0x8(v1)
        001046f4 b2 01 00 10  	   beq        zero,zero,LAB_00104dc0
        001046f8 00 10 42 34  	   _ori       v0,v0,0x1000
                             LAB_001046fc                                    XREF[1]:     002ec850(*)  
        001046fc 3c 07 06 0c  	   jal        MemoryAllocate                                   void * MemoryAllocate(uint memor
        00104700 18 00 04 24  	   _li        a0,0x18
        00104704 2d 30 40 00  	   move       a2,v0
        00104708 0f 00 03 3c  	   lui        v1,0xf
        0010470c 14 00 c4 8c  	   lw         a0,0x14(a2)
        00104710 f0 ff 02 24  	   li         v0,-0x10
        00104714 f1 ff 63 34  	   ori        v1,v1,0xfff1
                             LAB_00104718                                    XREF[1]:     00102738(j)  
        00104718 ef ff 05 3c  	   lui        a1,0xffef
        0010471c 24 20 82 00  	   and        a0,a0,v0
        00104720 ff ff a5 34  	   ori        a1,a1,0xffff
        00104724 25 20 83 00  	   or         a0,a0,v1
        00104728 df ff 02 3c  	   lui        v0,0xffdf
        0010472c 24 20 85 00  	   and        a0,a0,a1
        00104730 ff ff 42 34  	   ori        v0,v0,0xffff
        00104734 bf ff 03 3c  	   lui        v1,0xffbf
        00104738 24 20 82 00  	   and        a0,a0,v0
        0010473c ff ff 63 34  	   ori        v1,v1,0xffff
        00104740 7f ff 02 3c  	   lui        v0,0xff7f
        00104744 24 20 83 00  	   and        a0,a0,v1
        00104748 ff ff 42 34  	   ori        v0,v0,0xffff
        0010474c ff 00 05 3c  	   lui        a1,0xff
        00104750 30 00 03 3c  	   lui        v1,0x30
        00104754 24 20 82 00  	   and        a0,a0,v0
        00104758 d8 e6 63 24  	   addiu      v1,v1,-0x1928
        0010475c ff ff a5 34  	   ori        a1,a1,0xffff
        00104760 08 00 c3 ac  	   sw         v1=>DAT_002fe6d8,0x8(a2)
        00104764 00 00 c5 ac  	   sw         a1,0x0(a2)
        00104768 2d 10 c0 00  	   move       v0,a2
        0010476c 14 00 c4 ac  	   sw         a0,0x14(a2)
        00104770 04 00 c0 ac  	   sw         zero,0x4(a2)
        00104774 0c 00 c0 ac  	   sw         zero,0xc(a2)
        00104778 2a 09 00 10  	   beq        zero,zero,LAB_00106c24
        0010477c 10 00 c0 ac  	   _sw        zero,0x10(a2)
                             LAB_00104780                                    XREF[1]:     002ec6b8(*)  
        00104780 3c 07 06 0c  	   jal        MemoryAllocate                                   void * MemoryAllocate(uint memor
        00104784 0c 00 04 24  	   _li        a0,0xc
        00104788 ff 00 03 3c  	   lui        v1,0xff
        0010478c 30 00 04 3c  	   lui        a0,0x30
        00104790 2d 28 40 00  	   move       a1,v0
        00104794 1d 09 00 10  	   beq        zero,zero,LAB_00106c0c
        00104798 58 e1 84 24  	   _addiu     a0,a0,-0x1ea8
                             LAB_0010479c                                    XREF[1]:     002ec6ac(*)  
        0010479c 3c 07 06 0c  	   jal        MemoryAllocate                                   void * MemoryAllocate(uint memor
        001047a0 10 00 04 24  	   _li        a0,0x10
        001047a4 2d 18 40 00  	   move       v1,v0
        001047a8 fe ff 04 3c  	   lui        a0,0xfffe
        001047ac ff ff 02 34  	   ori        v0,zero,0xffff
        001047b0 30 00 05 3c  	   lui        a1,0x30
        001047b4 0c 00 62 a4  	   sh         v0,0xc(v1)
        001047b8 ff ff 84 34  	   ori        a0,a0,0xffff
        001047bc ff 00 02 3c  	   lui        v0,0xff
        001047c0 b8 19 a5 24  	   addiu      a1=>DAT_003019b8,a1,0x19b8
        001047c4 0c 00 66 8c  	   lw         a2,0xc(v1)
        001047c8 ff ff 42 34  	   ori        v0,v0,0xffff
        001047cc 00 00 62 ac  	   sw         v0,0x0(v1)
        001047d0 24 30 c4 00  	   and        a2,a2,a0
        001047d4 08 00 65 ac  	   sw         a1=>DAT_003019b8,0x8(v1)
        001047d8 15 07 00 10  	   beq        zero,zero,LAB_00106430
        001047dc 2d 10 60 00  	   _move      v0,v1
                             LAB_001047e0                                    XREF[1]:     002ec6b0(*)  
        001047e0 80 3f 01 3c  	   lui        at,0x3f80
        001047e4 00 a0 81 44  	   mtc1       at,f20
        001047e8 3c 07 06 0c  	   jal        MemoryAllocate                                   void * MemoryAllocate(uint memor
        001047ec c0 00 04 24  	   _li        a0,0xc0
        001047f0 ff 00 04 3c  	   lui        a0,0xff
        001047f4 30 00 03 3c  	   lui        v1,0x30
        001047f8 2d 80 40 00  	   move       s0,v0
        001047fc 38 19 63 24  	   addiu      v1,v1,0x1938
        00104800 ff ff 84 34  	   ori        a0,a0,0xffff
        00104804 08 00 03 ae  	   sw         v1=>DAT_00301938,0x8(s0)
        00104808 00 00 04 ae  	   sw         a0,0x0(s0)
        0010480c 10 00 02 26  	   addiu      v0,s0,0x10
        00104810 04 00 00 ae  	   sw         zero,0x4(s0)
        00104814 20 00 04 26  	   addiu      a0,s0,0x20
        00104818 10 00 00 ae  	   sw         zero,0x10(s0)
        0010481c 01 00 05 24  	   li         a1,0x1
        00104820 2d 30 00 00  	   move       a2,zero
        00104824 0c 00 54 e4  	   swc1       f20,0xc(v0)
        00104828 04 00 40 ac  	   sw         zero,0x4(v0)
        0010482c b0 fc 08 0c  	   jal        FUN_0023f2c0                                     undefined8 FUN_0023f2c0(undefine
        00104830 08 00 40 ac  	   _sw        zero,0x8(v0)
        00104834 ff 00 03 24  	   li         v1,0xff
        00104838 ff f0 04 24  	   li         a0,-0xf01
        0010483c a8 00 03 a2  	   sb         v1,0xa8(s0)
        00104840 0f 00 05 3c  	   lui        a1,0xf
        00104844 00 f0 a5 34  	   ori        a1,a1,0xf000
        00104848 f0 0f 03 3c  	   lui        v1,0xff0
        0010484c ff bf 06 3c  	   lui        a2,0xbfff
        00104850 ff ff c6 34  	   ori        a2,a2,0xffff
        00104854 b8 30 06 00  	   dsll       a2,a2,0x2
        00104858 03 00 c6 34  	   ori        a2,a2,0x3
        0010485c a8 00 02 de  	   ld         v0,0xa8(s0)
        00104860 ff bf 07 3c  	   lui        a3,0xbfff
        00104864 ff ff e7 34  	   ori        a3,a3,0xffff
        00104868 f8 38 07 00  	   dsll       a3,a3,0x3
        0010486c 07 00 e7 34  	   ori        a3,a3,0x7
        00104870 ff bf 09 3c  	   lui        t1,0xbfff
        00104874 ff ff 29 35  	   ori        t1,t1,0xffff
        00104878 38 49 09 00  	   dsll       t1,t1,0x4
        0010487c 0f 00 29 35  	   ori        t1,t1,0xf
        00104880 ff bf 0b 3c  	   lui        t3,0xbfff
        00104884 ff ff 6b 35  	   ori        t3,t3,0xffff
        00104888 78 59 0b 00  	   dsll       t3,t3,0x5
        0010488c 1f 00 6b 35  	   ori        t3,t3,0x1f
        00104890 24 10 44 00  	   and        v0,v0,a0
        00104894 ff bf 0a 3c  	   lui        t2,0xbfff
        00104898 ff ff 4a 35  	   ori        t2,t2,0xffff
        0010489c b8 51 0a 00  	   dsll       t2,t2,0x6
        001048a0 3f 00 4a 35  	   ori        t2,t2,0x3f
        001048a4 25 10 45 00  	   or         v0,v0,a1
        001048a8 ff bf 08 3c  	   lui        t0,0xbfff
        001048ac ff ff 08 35  	   ori        t0,t0,0xffff
        001048b0 f8 41 08 00  	   dsll       t0,t0,0x7
        001048b4 7f 00 08 35  	   ori        t0,t0,0x7f
        001048b8 25 10 43 00  	   or         v0,v0,v1
        001048bc ff bf 05 3c  	   lui        a1,0xbfff
        001048c0 ff ff a5 34  	   ori        a1,a1,0xffff
        001048c4 38 2a 05 00  	   dsll       a1,a1,0x8
        001048c8 ff 00 a5 34  	   ori        a1,a1,0xff
        001048cc 24 10 46 00  	   and        v0,v0,a2
        001048d0 ff bf 03 3c  	   lui        v1,0xbfff
        001048d4 ff ff 63 34  	   ori        v1,v1,0xffff
        001048d8 78 1a 03 00  	   dsll       v1,v1,0x9
        001048dc ff 01 63 34  	   ori        v1,v1,0x1ff
        001048e0 24 10 47 00  	   and        v0,v0,a3
        001048e4 06 a3 00 46  	   mov.S      f12,f20
        001048e8 24 10 49 00  	   and        v0,v0,t1
        001048ec b0 00 04 26  	   addiu      a0,s0,0xb0
        001048f0 24 10 4b 00  	   and        v0,v0,t3
        001048f4 24 10 4a 00  	   and        v0,v0,t2
        001048f8 24 10 48 00  	   and        v0,v0,t0
        001048fc 24 10 45 00  	   and        v0,v0,a1
        00104900 24 10 43 00  	   and        v0,v0,v1
        00104904 36 26 08 0c  	   jal        FUN_002098d8                                     undefined8 FUN_002098d8(uint par
        00104908 a8 00 02 fe  	   _sd        v0,0xa8(s0)
        0010490c 2d 10 00 02  	   move       v0,s0
        00104910 b4 00 00 ae  	   sw         zero,0xb4(s0)
        00104914 b8 00 00 ae  	   sw         zero,0xb8(s0)
        00104918 c2 08 00 10  	   beq        zero,zero,LAB_00106c24
        0010491c bc 00 00 ae  	   _sw        zero,0xbc(s0)
                             LAB_00104920                                    XREF[1]:     002ec58c(*)  
        00104920 3c 07 06 0c  	   jal        MemoryAllocate                                   void * MemoryAllocate(uint memor
        00104924 10 00 04 24  	   _li        a0,0x10
        00104928 2d 28 40 00  	   move       a1,v0
        0010492c f8 ff 06 24  	   li         a2,-0x8
        00104930 0c 00 a4 8c  	   lw         a0,0xc(a1)
        00104934 ff 00 02 3c  	   lui        v0,0xff
        00104938 ff ff 42 34  	   ori        v0,v0,0xffff
        0010493c 30 00 03 3c  	   lui        v1,0x30
        00104940 24 20 86 00  	   and        a0,a0,a2
        00104944 f8 1a 63 24  	   addiu      v1,v1,0x1af8
        00104948 d7 05 00 10  	   beq        zero,zero,LAB_001060a8
        0010494c 02 00 84 34  	   _ori       a0,a0,0x2
                             LAB_00104950                                    XREF[1]:     002ec6a8(*)  
        00104950 3c 07 06 0c  	   jal        MemoryAllocate                                   void * MemoryAllocate(uint memor
        00104954 30 00 04 24  	   _li        a0,0x30
        00104958 30 00 03 3c  	   lui        v1,0x30
        0010495c 2d 80 40 00  	   move       s0,v0
        00104960 b8 1a 63 24  	   addiu      v1,v1,0x1ab8
        00104964 ff 8f 04 3c  	   lui        a0,0x8fff
        00104968 ff ff 84 34  	   ori        a0,a0,0xffff
        0010496c 38 21 04 00  	   dsll       a0,a0,0x4
        00104970 0f 00 84 34  	   ori        a0,a0,0xf
        00104974 08 00 03 ae  	   sw         v1=>DAT_00301ab8,0x8(s0)
        00104978 00 80 05 34  	   ori        a1,zero,0x8000
        0010497c b8 2c 05 00  	   dsll       a1,a1,0x12
        00104980 00 ff 06 34  	   ori        a2,zero,0xff00
        00104984 f8 36 06 00  	   dsll       a2,a2,0x1b
        00104988 ff 87 07 3c  	   lui        a3,0x87ff
        0010498c ff ff e7 34  	   ori        a3,a3,0xffff
        00104990 38 3c 07 00  	   dsll       a3,a3,0x10
        00104994 ff ff e7 34  	   ori        a3,a3,0xffff
        00104998 08 00 02 de  	   ld         v0,0x8(s0)
        0010499c ff bf 08 3c  	   lui        t0,0xbfff
        001049a0 ff ff 08 35  	   ori        t0,t0,0xffff
        001049a4 38 44 08 00  	   dsll       t0,t0,0x10
        001049a8 ff ff 08 35  	   ori        t0,t0,0xffff
        001049ac 78 40 08 00  	   dsll       t0,t0,0x1
        001049b0 01 00 08 35  	   ori        t0,t0,0x1
        001049b4 fe ff 09 34  	   ori        t1,zero,0xfffe
        001049b8 38 4c 09 00  	   dsll       t1,t1,0x10
        001049bc ff ff 29 35  	   ori        t1,t1,0xffff
        001049c0 38 4c 09 00  	   dsll       t1,t1,0x10
        001049c4 ff ff 29 35  	   ori        t1,t1,0xffff
        001049c8 38 4c 09 00  	   dsll       t1,t1,0x10
        001049cc ff ff 29 35  	   ori        t1,t1,0xffff
        001049d0 00 f0 0a 34  	   ori        t2,zero,0xf000
        001049d4 7c 51 0a 00  	   dsll32     t2,t2,0x5
        001049d8 24 10 44 00  	   and        v0,v0,a0
        001049dc df ff 0b 34  	   ori        t3,zero,0xffdf
        001049e0 38 5c 0b 00  	   dsll       t3,t3,0x10
        001049e4 ff ff 6b 35  	   ori        t3,t3,0xffff
        001049e8 38 5c 0b 00  	   dsll       t3,t3,0x10
        001049ec ff ff 6b 35  	   ori        t3,t3,0xffff
        001049f0 38 5c 0b 00  	   dsll       t3,t3,0x10
        001049f4 ff ff 6b 35  	   ori        t3,t3,0xffff
        001049f8 25 10 45 00  	   or         v0,v0,a1
        001049fc bf ff 0c 34  	   ori        t4,zero,0xffbf
        00104a00 38 64 0c 00  	   dsll       t4,t4,0x10
        00104a04 ff ff 8c 35  	   ori        t4,t4,0xffff
        00104a08 38 64 0c 00  	   dsll       t4,t4,0x10
        00104a0c ff ff 8c 35  	   ori        t4,t4,0xffff
        00104a10 38 64 0c 00  	   dsll       t4,t4,0x10
        00104a14 ff ff 8c 35  	   ori        t4,t4,0xffff
        00104a18 25 10 46 00  	   or         v0,v0,a2
        00104a1c ff 00 03 3c  	   lui        v1,0xff
        00104a20 24 10 47 00  	   and        v0,v0,a3
        00104a24 ff ff 63 34  	   ori        v1,v1,0xffff
        00104a28 24 10 48 00  	   and        v0,v0,t0
        00104a2c 7f ff 04 34  	   ori        a0,zero,0xff7f
        00104a30 38 24 04 00  	   dsll       a0,a0,0x10
        00104a34 ff ff 84 34  	   ori        a0,a0,0xffff
        00104a38 38 24 04 00  	   dsll       a0,a0,0x10
        00104a3c ff ff 84 34  	   ori        a0,a0,0xffff
        00104a40 38 24 04 00  	   dsll       a0,a0,0x10
        00104a44 ff ff 84 34  	   ori        a0,a0,0xffff
        00104a48 24 10 49 00  	   and        v0,v0,t1
        00104a4c 00 00 03 ae  	   sw         v1,0x0(s0)
        00104a50 25 10 4a 00  	   or         v0,v0,t2
        00104a54 10 00 03 26  	   addiu      v1,s0,0x10
        00104a58 24 10 4b 00  	   and        v0,v0,t3
        00104a5c 04 00 00 ae  	   sw         zero,0x4(s0)
        00104a60 24 10 4c 00  	   and        v0,v0,t4
                             LAB_00104a64                                    XREF[2]:     001041a0(j), 0010430c(j)  
        00104a64 10 00 00 ae  	   sw         zero,0x10(s0)
        00104a68 24 10 44 00  	   and        v0,v0,a0
        00104a6c 80 3f 01 3c  	   lui        at,0x3f80
        00104a70 00 00 81 44  	   mtc1       at,f0
        00104a74 08 00 02 fe  	   sd         v0,0x8(s0)
        00104a78 2d 20 a0 03  	   move       a0,sp
        00104a7c 04 00 60 ac  	   sw         zero,0x4(v1)
        00104a80 2d 28 00 00  	   move       a1,zero
        00104a84 0c 00 60 e4  	   swc1       f0,0xc(v1)
        00104a88 04 00 6c c4  	   lwc1       f12,0x4(v1)
        00104a8c c4 6f 04 0c  	   jal        FUN_0011bf10                                     undefined FUN_0011bf10(float par
        00104a90 08 00 60 ac  	   _sw        zero,0x8(v1)
        00104a94 00 60 80 44  	   clear      f12
        00104a98 10 00 a4 27  	   addiu      a0,sp,0x10
        00104a9c c4 6f 04 0c  	   jal        FUN_0011bf10                                     undefined FUN_0011bf10(float par
        00104aa0 2d 28 00 00  	   _move      a1,zero
        00104aa4 00 60 80 44  	   clear      f12
        00104aa8 20 00 a4 27  	   addiu      a0,sp,0x20
        00104aac c4 6f 04 0c  	   jal        FUN_0011bf10                                     undefined FUN_0011bf10(float par
        00104ab0 2d 28 00 00  	   _move      a1,zero
        00104ab4 00 00 a5 8f  	   lw         a1,0x0(sp)
        00104ab8 2d 10 00 02  	   move       v0,s0
        00104abc 10 00 a3 8f  	   lw         v1,0x10(sp)
        00104ac0 20 00 a4 8f  	   lw         a0,0x20(sp)
        00104ac4 20 00 05 ae  	   sw         a1,0x20(s0)
        00104ac8 24 00 03 ae  	   sw         v1,0x24(s0)
        00104acc 55 08 00 10  	   beq        zero,zero,LAB_00106c24
        00104ad0 28 00 04 ae  	   _sw        a0,0x28(s0)
                             LAB_00104ad4                                    XREF[1]:     002ec6cc(*)  
        00104ad4 3c 07 06 0c  	   jal        MemoryAllocate                                   void * MemoryAllocate(uint memor
        00104ad8 10 00 04 24  	   _li        a0,0x10
        00104adc 2d 20 40 00  	   move       a0,v0
        00104ae0 ff fe 06 24  	   li         a2,-0x101
        00104ae4 ff 00 02 24  	   li         v0,0xff
        00104ae8 ff f1 07 24  	   li         a3,-0xe01
        00104aec 0c 00 82 a0  	   sb         v0,0xc(a0)
        00104af0 ff ef 09 24  	   li         t1,-0x1001
        00104af4 ff 00 02 3c  	   lui        v0,0xff
        00104af8 30 00 05 3c  	   lui        a1,0x30
        00104afc 0c 00 83 8c  	   lw         v1,0xc(a0)
        00104b00 ff ff 42 34  	   ori        v0,v0,0xffff
        00104b04 ff df 08 24  	   li         t0,-0x2001
        00104b08 18 ef a5 24  	   addiu      a1=>DAT_002fef18,a1,-0x10e8
        00104b0c 24 18 66 00  	   and        v1,v1,a2
        00104b10 00 00 82 ac  	   sw         v0,0x0(a0)
        00104b14 24 18 67 00  	   and        v1,v1,a3
        00104b18 08 00 85 ac  	   sw         a1=>DAT_002fef18,0x8(a0)
        00104b1c 00 06 63 34  	   ori        v1,v1,0x600
        00104b20 2d 10 80 00  	   move       v0,a0
        00104b24 24 18 69 00  	   and        v1,v1,t1
        00104b28 04 00 80 ac  	   sw         zero,0x4(a0)
        00104b2c 24 18 68 00  	   and        v1,v1,t0
        00104b30 3c 08 00 10  	   beq        zero,zero,LAB_00106c24
        00104b34 0c 00 83 ac  	   _sw        v1,0xc(a0)
                             LAB_00104b38                                    XREF[1]:     002ec6d0(*)  
        00104b38 3c 07 06 0c  	   jal        MemoryAllocate                                   void * MemoryAllocate(uint memor
        00104b3c 10 00 04 24  	   _li        a0,0x10
        00104b40 2d 18 40 00  	   move       v1,v0
        00104b44 ff f8 06 24  	   li         a2,-0x701
        00104b48 ff 00 02 24  	   li         v0,0xff
        00104b4c ff 00 05 3c  	   lui        a1,0xff
        00104b50 0c 00 62 a0  	   sb         v0,0xc(v1)
        00104b54 ff ff a5 34  	   ori        a1,a1,0xffff
        00104b58 30 00 02 3c  	   lui        v0,0x30
        00104b5c 00 00 65 ac  	   sw         a1,0x0(v1)
        00104b60 0c 00 64 8c  	   lw         a0,0xc(v1)
        00104b64 d8 ee 42 24  	   addiu      v0,v0,-0x1128
        00104b68 08 00 62 ac  	   sw         v0=>DAT_002feed8,0x8(v1)
        00104b6c 24 20 86 00  	   and        a0,a0,a2
        00104b70 2d 10 60 00  	   move       v0,v1
        00104b74 00 03 84 34  	   ori        a0,a0,0x300
                             LAB_00104b78                                    XREF[2]:     0010225c(j), 001022a0(j)  
        00104b78 04 00 60 ac  	   sw         zero,0x4(v1)
        00104b7c 29 08 00 10  	   beq        zero,zero,LAB_00106c24
        00104b80 0c 00 64 ac  	   _sw        a0,0xc(v1)
                             LAB_00104b84                                    XREF[1]:     002ec6d8(*)  
        00104b84 3c 07 06 0c  	   jal        MemoryAllocate                                   void * MemoryAllocate(uint memor
        00104b88 10 00 04 24  	   _li        a0,0x10
        00104b8c 2d 28 40 00  	   move       a1,v0
        00104b90 f8 ff 06 24  	   li         a2,-0x8
        00104b94 0c 00 a4 8c  	   lw         a0,0xc(a1)
        00104b98 ff 00 02 3c  	   lui        v0,0xff
        00104b9c ff ff 42 34  	   ori        v0,v0,0xffff
        00104ba0 30 00 03 3c  	   lui        v1,0x30
        00104ba4 24 20 86 00  	   and        a0,a0,a2
        00104ba8 58 ee 63 24  	   addiu      v1,v1,-0x11a8
        00104bac 3e 05 00 10  	   beq        zero,zero,LAB_001060a8
        00104bb0 03 00 84 34  	   _ori       a0,a0,0x3
                             LAB_00104bb4                                    XREF[1]:     002ec6e0(*)  
        00104bb4 3c 07 06 0c  	   jal        MemoryAllocate                                   void * MemoryAllocate(uint memor
        00104bb8 60 00 04 24  	   _li        a0,0x60
        00104bbc ff 00 03 3c  	   lui        v1,0xff
        00104bc0 30 00 05 3c  	   lui        a1,0x30
        00104bc4 2d 20 40 00  	   move       a0,v0
        00104bc8 18 f0 a5 24  	   addiu      a1,a1,-0xfe8
        00104bcc 80 3f 01 3c  	   lui        at,0x3f80
        00104bd0 00 00 81 44  	   mtc1       at,f0
        00104bd4 ff ff 63 34  	   ori        v1,v1,0xffff
        00104bd8 00 00 83 ac  	   sw         v1,0x0(a0)
        00104bdc 10 00 82 24  	   addiu      v0,a0,0x10
        00104be0 08 00 85 ac  	   sw         a1=>DAT_002ff018,0x8(a0)
        00104be4 ff 00 06 24  	   li         a2,0xff
        00104be8 04 00 80 ac  	   sw         zero,0x4(a0)
        00104bec f0 ff 05 3c  	   lui        a1,0xfff0
        00104bf0 ff ff a5 34  	   ori        a1,a1,0xffff
        00104bf4 10 00 80 ac  	   sw         zero,0x10(a0)
        00104bf8 ef ff 07 3c  	   lui        a3,0xffef
        00104bfc ff ff e7 34  	   ori        a3,a3,0xffff
        00104c00 0c 00 40 e4  	   swc1       f0,0xc(v0)
        00104c04 df ff 08 3c  	   lui        t0,0xffdf
        00104c08 ff ff 08 35  	   ori        t0,t0,0xffff
        00104c0c 04 00 40 ac  	   sw         zero,0x4(v0)
        00104c10 bf ff 09 3c  	   lui        t1,0xffbf
        00104c14 ff ff 29 35  	   ori        t1,t1,0xffff
        00104c18 08 00 40 ac  	   sw         zero,0x8(v0)
        00104c1c 7f fc 0a 3c  	   lui        t2,0xfc7f
        00104c20 ff ff 4a 35  	   ori        t2,t2,0xffff
        00104c24 20 00 86 a0  	   sb         a2,0x20(a0)
        00104c28 80 01 0b 3c  	   lui        t3,0x180
        00104c2c 21 00 86 a0  	   sb         a2,0x21(a0)
        00104c30 ff fb 0c 3c  	   lui        t4,0xfbff
        00104c34 ff ff 8c 35  	   ori        t4,t4,0xffff
        00104c38 ff f7 0d 3c  	   lui        t5,0xf7ff
        00104c3c ff ff ad 35  	   ori        t5,t5,0xffff
        00104c40 ff ef 0e 3c  	   lui        t6,0xefff
        00104c44 ff ff ce 35  	   ori        t6,t6,0xffff
        00104c48 20 00 83 dc  	   ld         v1,0x20(a0)
        00104c4c ff df 0f 3c  	   lui        t7,0xdfff
        00104c50 ff ff ef 35  	   ori        t7,t7,0xffff
        00104c54 ff bf 10 3c  	   lui        s0,0xbfff
        00104c58 ff ff 10 36  	   ori        s0,s0,0xffff
        00104c5c ff bf 11 3c  	   lui        s1,0xbfff
        00104c60 ff ff 31 36  	   ori        s1,s1,0xffff
        00104c64 78 88 11 00  	   dsll       s1,s1,0x1
        00104c68 01 00 31 36  	   ori        s1,s1,0x1
        00104c6c 24 18 65 00  	   and        v1,v1,a1
        00104c70 ff bf 12 3c  	   lui        s2,0xbfff
        00104c74 ff ff 52 36  	   ori        s2,s2,0xffff
        00104c78 b8 90 12 00  	   dsll       s2,s2,0x2
        00104c7c 03 00 52 36  	   ori        s2,s2,0x3
        00104c80 24 18 67 00  	   and        v1,v1,a3
        00104c84 2c 00 80 e4  	   swc1       f0,0x2c(a0)
        00104c88 24 18 68 00  	   and        v1,v1,t0
        00104c8c 4c 00 86 a0  	   sb         a2,0x4c(a0)
        00104c90 24 18 69 00  	   and        v1,v1,t1
        00104c94 2d 10 80 00  	   move       v0,a0
        00104c98 24 18 6a 00  	   and        v1,v1,t2
        00104c9c 30 00 80 ac  	   sw         zero,0x30(a0)
        00104ca0 25 18 6b 00  	   or         v1,v1,t3
        00104ca4 34 00 80 ac  	   sw         zero,0x34(a0)
        00104ca8 24 18 6c 00  	   and        v1,v1,t4
        00104cac 38 00 80 ac  	   sw         zero,0x38(a0)
        00104cb0 24 18 6d 00  	   and        v1,v1,t5
        00104cb4 3c 00 80 ac  	   sw         zero,0x3c(a0)
        00104cb8 24 18 6e 00  	   and        v1,v1,t6
        00104cbc 40 00 80 ac  	   sw         zero,0x40(a0)
        00104cc0 24 18 6f 00  	   and        v1,v1,t7
        00104cc4 44 00 80 ac  	   sw         zero,0x44(a0)
        00104cc8 24 18 70 00  	   and        v1,v1,s0
        00104ccc 48 00 80 ac  	   sw         zero,0x48(a0)
        00104cd0 24 18 71 00  	   and        v1,v1,s1
        00104cd4 50 00 80 ac  	   sw         zero,0x50(a0)
        00104cd8 24 18 72 00  	   and        v1,v1,s2
        00104cdc d1 07 00 10  	   beq        zero,zero,LAB_00106c24
        00104ce0 20 00 83 fc  	   _sd        v1,0x20(a0)
                             LAB_00104ce4                                    XREF[1]:     002ec6e4(*)  
        00104ce4 3c 07 06 0c  	   jal        MemoryAllocate                                   void * MemoryAllocate(uint memor
        00104ce8 20 00 04 24  	   _li        a0,0x20
        00104cec 2d 18 40 00  	   move       v1,v0
        00104cf0 f8 ff 06 24  	   li         a2,-0x8
        00104cf4 0c 00 65 8c  	   lw         a1,0xc(v1)
        00104cf8 ff 00 02 3c  	   lui        v0,0xff
        00104cfc 80 3f 01 3c  	   lui        at,0x3f80
        00104d00 00 00 81 44  	   mtc1       at,f0
        00104d04 ff ff 42 34  	   ori        v0,v0,0xffff
        00104d08 30 00 04 3c  	   lui        a0,0x30
        00104d0c 24 28 a6 00  	   and        a1,a1,a2
        00104d10 58 ef 84 24  	   addiu      a0,a0,-0x10a8
        00104d14 03 00 a5 34  	   ori        a1,a1,0x3
        00104d18 00 00 62 ac  	   sw         v0,0x0(v1)
        00104d1c 2d 10 60 00  	   move       v0,v1
        00104d20 08 00 64 ac  	   sw         a0=>DAT_002fef58,0x8(v1)
        00104d24 0c 00 65 ac  	   sw         a1,0xc(v1)
                             LAB_00104d28                                    XREF[1]:     001022e4(j)  
        00104d28 1c 00 60 e4  	   swc1       f0,0x1c(v1)
        00104d2c 04 00 60 ac  	   sw         zero,0x4(v1)
        00104d30 10 00 60 ac  	   sw         zero,0x10(v1)
        00104d34 14 00 60 e4  	   swc1       f0,0x14(v1)
        00104d38 ba 07 00 10  	   beq        zero,zero,LAB_00106c24
        00104d3c 18 00 60 e4  	   _swc1      f0,0x18(v1)
                             LAB_00104d40                                    XREF[1]:     002ec6e8(*)  
        00104d40 3c 07 06 0c  	   jal        MemoryAllocate                                   void * MemoryAllocate(uint memor
        00104d44 0c 00 04 24  	   _li        a0,0xc
        00104d48 ff 00 03 3c  	   lui        v1,0xff
        00104d4c 30 00 04 3c  	   lui        a0,0x30
        00104d50 2d 28 40 00  	   move       a1,v0
        00104d54 ad 07 00 10  	   beq        zero,zero,LAB_00106c0c
        00104d58 98 ed 84 24  	   _addiu     a0,a0,-0x1268
                             LAB_00104d5c                                    XREF[1]:     002ec798(*)  
        00104d5c 3c 07 06 0c  	   jal        MemoryAllocate                                   void * MemoryAllocate(uint memor
        00104d60 10 00 04 24  	   _li        a0,0x10
        00104d64 2d 18 40 00  	   move       v1,v0
        00104d68 ff fe 05 24  	   li         a1,-0x101
        00104d6c ff 00 02 24  	   li         v0,0xff
        00104d70 ff fd 07 24  	   li         a3,-0x201
        00104d74 0c 00 62 a0  	   sb         v0,0xc(v1)
        00104d78 ff fb 08 24  	   li         t0,-0x401
        00104d7c ff f7 09 24  	   li         t1,-0x801
        00104d80 ff 8f 0a 24  	   li         t2,-0x7001
        00104d84 0c 00 62 8c  	   lw         v0,0xc(v1)
        00104d88 ff ff 06 3c  	   lui        a2,0xffff
        00104d8c ff 7f c6 34  	   ori        a2,a2,0x7fff
        00104d90 ff 00 04 3c  	   lui        a0,0xff
        00104d94 24 10 45 00  	   and        v0,v0,a1
        00104d98 ff ff 84 34  	   ori        a0,a0,0xffff
        00104d9c 24 10 47 00  	   and        v0,v0,a3
        00104da0 30 00 05 3c  	   lui        a1,0x30
        00104da4 24 10 48 00  	   and        v0,v0,t0
        00104da8 18 ed a5 24  	   addiu      a1=>DAT_002fed18,a1,-0x12e8
        00104dac 24 10 49 00  	   and        v0,v0,t1
        00104db0 00 00 64 ac  	   sw         a0,0x0(v1)
        00104db4 24 10 4a 00  	   and        v0,v0,t2
        00104db8 08 00 65 ac  	   sw         a1=>DAT_002fed18,0x8(v1)
        00104dbc 00 30 42 34  	   ori        v0,v0,0x3000
                             LAB_00104dc0                                    XREF[2]:     00102070(j), 001046f4(j)  
        00104dc0 04 00 60 ac  	   sw         zero,0x4(v1)
        00104dc4 24 10 46 00  	   and        v0,v0,a2
                             LAB_00104dc8                                    XREF[3]:     00101ec8(j), 001020c8(j), 
                                                                                          001021d8(j)  
        00104dc8 0c 00 62 ac  	   sw         v0,0xc(v1)
        00104dcc 95 07 00 10  	   beq        zero,zero,LAB_00106c24
        00104dd0 2d 10 60 00  	   _move      v0,v1
                             LAB_00104dd4                                    XREF[1]:     002ecd30(*)  
        00104dd4 3c 07 06 0c  	   jal        MemoryAllocate                                   void * MemoryAllocate(uint memor
        00104dd8 14 00 04 24  	   _li        a0,0x14
        00104ddc ff 00 04 3c  	   lui        a0,0xff
        00104de0 2d 80 40 00  	   move       s0,v0
        00104de4 ff ff 84 34  	   ori        a0,a0,0xffff
        00104de8 2f 00 03 3c  	   lui        v1,0x2f
        00104dec e0 00 63 24  	   addiu      v1,v1,0xe0
        00104df0 00 00 04 ae  	   sw         a0,0x0(s0)
        00104df4 08 00 03 ae  	   sw         v1=>DAT_002f00e0,0x8(s0)
        00104df8 0c 00 04 26  	   addiu      a0,s0,0xc
        00104dfc 76 70 04 0c  	   jal        SetUndefinedID?                                  undefined SetUndefinedID?(short 
        00104e00 04 00 00 ae  	   _sw        zero,0x4(s0)
        00104e04 76 70 04 0c  	   jal        SetUndefinedID?                                  undefined SetUndefinedID?(short 
        00104e08 0e 00 04 26  	   _addiu     a0,s0,0xe
        00104e0c 10 00 03 8e  	   lw         v1,0x10(s0)
        00104e10 f0 ff 04 24  	   li         a0,-0x10
        00104e14 0f ff 05 24  	   li         a1,-0xf1
        00104e18 2d 10 00 02  	   move       v0,s0
        00104e1c 24 18 64 00  	   and        v1,v1,a0
        00104e20 01 00 63 34  	   ori        v1,v1,0x1
        00104e24 24 18 65 00  	   and        v1,v1,a1
        00104e28 a0 00 63 34  	   ori        v1,v1,0xa0
        00104e2c 7d 07 00 10  	   beq        zero,zero,LAB_00106c24
        00104e30 10 00 03 ae  	   _sw        v1,0x10(s0)
                             LAB_00104e34                                    XREF[2]:     002ecd38(*), 002ecdb8(*)  
        00104e34 3c 07 06 0c  	   jal        MemoryAllocate                                   void * MemoryAllocate(uint memor
        00104e38 40 00 04 24  	   _li        a0,0x40
        00104e3c ff 00 03 3c  	   lui        v1,0xff
        00104e40 2f 00 04 3c  	   lui        a0,0x2f
        00104e44 2d 80 40 00  	   move       s0,v0
        00104e48 80 3f 01 3c  	   lui        at,0x3f80
        00104e4c 00 00 81 44  	   mtc1       at,f0
        00104e50 ff ff 63 34  	   ori        v1,v1,0xffff
        00104e54 98 00 84 24  	   addiu      a0,a0,0x98
        00104e58 00 00 03 ae  	   sw         v1,0x0(s0)
        00104e5c 10 00 02 26  	   addiu      v0,s0,0x10
        00104e60 08 00 04 ae  	   sw         a0=>DAT_002f0098,0x8(s0)
        00104e64 01 00 05 24  	   li         a1,0x1
        00104e68 04 00 00 ae  	   sw         zero,0x4(s0)
        00104e6c 28 00 04 26  	   addiu      a0,s0,0x28
        00104e70 10 00 00 ae  	   sw         zero,0x10(s0)
        00104e74 0c 00 40 e4  	   swc1       f0,0xc(v0)
        00104e78 04 00 40 ac  	   sw         zero,0x4(v0)
        00104e7c 08 00 40 ac  	   sw         zero,0x8(v0)
        00104e80 40 26 08 0c  	   jal        FUN_00209900                                     undefined FUN_00209900(int * par
        00104e84 24 00 00 ae  	   _sw        zero,0x24(s0)
        00104e88 00 60 80 44  	   clear      f12
        00104e8c 36 26 08 0c  	   jal        FUN_002098d8                                     undefined8 FUN_002098d8(uint par
        00104e90 2c 00 04 26  	   _addiu     a0,s0,0x2c
        00104e94 20 00 00 ae  	   sw         zero,0x20(s0)
        00104e98 f0 ff 03 24  	   li         v1,-0x10
        00104e9c 30 00 02 de  	   ld         v0,0x30(s0)
        00104ea0 01 00 06 24  	   li         a2,0x1
        00104ea4 20 00 04 de  	   ld         a0,0x20(s0)
        00104ea8 e0 1f 07 24  	   li         a3,0x1fe0
        00104eac 24 10 43 00  	   and        v0,v0,v1
        00104eb0 2f 00 05 3c  	   lui        a1,0x2f
        00104eb4 25 20 87 00  	   or         a0,a0,a3
        00104eb8 25 10 46 00  	   or         v0,v0,a2
        00104ebc f0 00 03 24  	   li         v1,0xf0
        00104ec0 08 00 a5 24  	   addiu      a1=>DAT_002f0008,a1,0x8
        00104ec4 25 10 43 00  	   or         v0,v0,v1
        00104ec8 00 60 80 44  	   clear      f12
        00104ecc 20 00 04 fe  	   sd         a0,0x20(s0)
        00104ed0 34 00 04 26  	   addiu      a0,s0,0x34
        00104ed4 08 00 05 ae  	   sw         a1=>DAT_002f0008,0x8(s0)
        00104ed8 36 26 08 0c  	   jal        FUN_002098d8                                     undefined8 FUN_002098d8(uint par
        00104edc 30 00 02 fe  	   _sd        v0,0x30(s0)
        00104ee0 00 60 80 44  	   clear      f12
        00104ee4 26 07 00 10  	   beq        zero,zero,LAB_00106b80
        00104ee8 38 00 04 26  	   _addiu     a0,s0,0x38
                             LAB_00104eec                                    XREF[1]:     002eced4(*)  
        00104eec 3c 07 06 0c  	   jal        MemoryAllocate                                   void * MemoryAllocate(uint memor
        00104ef0 18 00 04 24  	   _li        a0,0x18
        00104ef4 ff 00 05 3c  	   lui        a1,0xff
        00104ef8 2f 00 04 3c  	   lui        a0,0x2f
        00104efc 2d 18 40 00  	   move       v1,v0
        00104f00 c8 ff 84 24  	   addiu      a0,a0,-0x38
        00104f04 ff ff a5 34  	   ori        a1,a1,0xffff
        00104f08 08 00 64 ac  	   sw         a0=>DAT_002effc8,0x8(v1)
        00104f0c 00 00 65 ac  	   sw         a1,0x0(v1)
        00104f10 04 00 60 ac  	   sw         zero,0x4(v1)
        00104f14 1d 06 00 10  	   beq        zero,zero,LAB_0010678c
        00104f18 0c 00 60 ac  	   _sw        zero,0xc(v1)
                             LAB_00104f1c                                    XREF[1]:     002ecdfc(*)  
        00104f1c 3c 07 06 0c  	   jal        MemoryAllocate                                   void * MemoryAllocate(uint memor
        00104f20 40 00 04 24  	   _li        a0,0x40
        00104f24 ff 00 03 3c  	   lui        v1,0xff
        00104f28 2f 00 04 3c  	   lui        a0,0x2f
        00104f2c 2d 80 40 00  	   move       s0,v0
        00104f30 ff ff 63 34  	   ori        v1,v1,0xffff
        00104f34 80 3f 01 3c  	   lui        at,0x3f80
        00104f38 00 00 81 44  	   mtc1       at,f0
        00104f3c 98 00 84 24  	   addiu      a0,a0,0x98
        00104f40 00 00 03 ae  	   sw         v1,0x0(s0)
        00104f44 10 00 02 26  	   addiu      v0,s0,0x10
        00104f48 08 00 04 ae  	   sw         a0=>DAT_002f0098,0x8(s0)
        00104f4c 01 00 05 24  	   li         a1,0x1
        00104f50 04 00 00 ae  	   sw         zero,0x4(s0)
        00104f54 28 00 04 26  	   addiu      a0,s0,0x28
        00104f58 10 00 00 ae  	   sw         zero,0x10(s0)
        00104f5c 0c 00 40 e4  	   swc1       f0,0xc(v0)
        00104f60 04 00 40 ac  	   sw         zero,0x4(v0)
        00104f64 08 00 40 ac  	   sw         zero,0x8(v0)
        00104f68 40 26 08 0c  	   jal        FUN_00209900                                     undefined FUN_00209900(int * par
        00104f6c 24 00 00 ae  	   _sw        zero,0x24(s0)
        00104f70 00 60 80 44  	   clear      f12
        00104f74 36 26 08 0c  	   jal        FUN_002098d8                                     undefined8 FUN_002098d8(uint par
        00104f78 2c 00 04 26  	   _addiu     a0,s0,0x2c
        00104f7c 20 00 00 ae  	   sw         zero,0x20(s0)
        00104f80 e0 1f 05 24  	   li         a1,0x1fe0
        00104f84 2f 00 02 3c  	   lui        v0,0x2f
        00104f88 30 00 00 ae  	   sw         zero,0x30(s0)
        00104f8c 20 00 03 de  	   ld         v1,0x20(s0)
        00104f90 50 00 42 24  	   addiu      v0,v0,0x50
        00104f94 08 00 02 ae  	   sw         v0=>DAT_002f0050,0x8(s0)
        00104f98 34 00 04 26  	   addiu      a0,s0,0x34
        00104f9c 25 18 65 00  	   or         v1,v1,a1
        00104fa0 01 00 05 24  	   li         a1,0x1
        00104fa4 6d 06 00 10  	   beq        zero,zero,LAB_0010695c
        00104fa8 20 00 03 fe  	   _sd        v1,0x20(s0)
                             LAB_00104fac                                    XREF[1]:     002ecd3c(*)  
        00104fac 3c 07 06 0c  	   jal        MemoryAllocate                                   void * MemoryAllocate(uint memor
        00104fb0 10 00 04 24  	   _li        a0,0x10
        00104fb4 ff 00 03 3c  	   lui        v1,0xff
        00104fb8 2f 00 04 3c  	   lui        a0,0x2f
        00104fbc 2d 28 40 00  	   move       a1,v0
        00104fc0 91 03 00 10  	   beq        zero,zero,LAB_00105e08
        00104fc4 c8 fd 84 24  	   _addiu     a0,a0,-0x238
                             LAB_00104fc8                                    XREF[1]:     002ecd44(*)  
        00104fc8 3c 07 06 0c  	   jal        MemoryAllocate                                   void * MemoryAllocate(uint memor
        00104fcc 0c 00 04 24  	   _li        a0,0xc
        00104fd0 ff 00 03 3c  	   lui        v1,0xff
        00104fd4 2f 00 04 3c  	   lui        a0,0x2f
        00104fd8 2d 28 40 00  	   move       a1,v0
        00104fdc 0b 07 00 10  	   beq        zero,zero,LAB_00106c0c
        00104fe0 88 f7 84 24  	   _addiu     a0,a0,-0x878
                             LAB_00104fe4                                    XREF[1]:     002ecf68(*)  
        00104fe4 3c 07 06 0c  	   jal        MemoryAllocate                                   void * MemoryAllocate(uint memor
        00104fe8 0c 00 04 24  	   _li        a0,0xc
        00104fec ff 00 03 3c  	   lui        v1,0xff
        00104ff0 2f 00 04 3c  	   lui        a0,0x2f
        00104ff4 2d 28 40 00  	   move       a1,v0
        00104ff8 04 07 00 10  	   beq        zero,zero,LAB_00106c0c
        00104ffc 88 f4 84 24  	   _addiu     a0,a0,-0xb78
                             LAB_00105000                                    XREF[1]:     002eced8(*)  
        00105000 3c 07 06 0c  	   jal        MemoryAllocate                                   void * MemoryAllocate(uint memor
        00105004 0c 00 04 24  	   _li        a0,0xc
        00105008 ff 00 03 3c  	   lui        v1,0xff
        0010500c 2f 00 04 3c  	   lui        a0,0x2f
        00105010 2d 28 40 00  	   move       a1,v0
        00105014 fd 06 00 10  	   beq        zero,zero,LAB_00106c0c
        00105018 48 f4 84 24  	   _addiu     a0,a0,-0xbb8
                             LAB_0010501c                                    XREF[1]:     002ecf14(*)  
        0010501c 3c 07 06 0c  	   jal        MemoryAllocate                                   void * MemoryAllocate(uint memor
        00105020 18 00 04 24  	   _li        a0,0x18
        00105024 ff 00 04 3c  	   lui        a0,0xff
        00105028 2f 00 05 3c  	   lui        a1,0x2f
        0010502c 2d 18 40 00  	   move       v1,v0
        00105030 06 00 06 24  	   li         a2,0x6
        00105034 48 f7 a5 24  	   addiu      a1=>DAT_002ef748,a1,-0x8b8
        00105038 ff ff 84 34  	   ori        a0,a0,0xffff
        0010503c 00 00 64 ac  	   sw         a0,0x0(v1)
        00105040 08 00 65 ac  	   sw         a1=>DAT_002ef748,0x8(v1)
        00105044 14 00 66 ac  	   sw         a2,0x14(v1)
        00105048 04 00 60 ac  	   sw         zero,0x4(v1)
        0010504c 0c 00 60 ac  	   sw         zero,0xc(v1)
        00105050 f4 06 00 10  	   beq        zero,zero,LAB_00106c24
        00105054 10 00 66 ac  	   _sw        a2,0x10(v1)
                             LAB_00105058                                    XREF[1]:     002ecd88(*)  
        00105058 3c 07 06 0c  	   jal        MemoryAllocate                                   void * MemoryAllocate(uint memor
        0010505c 14 00 04 24  	   _li        a0,0x14
        00105060 2f 00 05 3c  	   lui        a1,0x2f
        00105064 2d 80 40 00  	   move       s0,v0
        00105068 08 f7 a5 24  	   addiu      a1,a1,-0x8f8
        0010506c ff 00 03 3c  	   lui        v1,0xff
        00105070 ff ff 63 34  	   ori        v1,v1,0xffff
        00105074 ff ff 02 24  	   li         v0,-0x1
        00105078 08 00 05 ae  	   sw         a1=>DAT_002ef708,0x8(s0)
        0010507c 10 00 04 26  	   addiu      a0,s0,0x10
        00105080 00 00 03 ae  	   sw         v1,0x0(s0)
        00105084 2d 28 00 00  	   move       a1,zero
        00105088 0c 00 02 ae  	   sw         v0,0xc(s0)
        0010508c 33 06 00 10  	   beq        zero,zero,LAB_0010695c
        00105090 04 00 00 ae  	   _sw        zero,0x4(s0)
                             LAB_00105094                                    XREF[1]:     002ecf4c(*)  
        00105094 3c 07 06 0c  	   jal        MemoryAllocate                                   void * MemoryAllocate(uint memor
        00105098 14 00 04 24  	   _li        a0,0x14
        0010509c ff 00 04 3c  	   lui        a0,0xff
        001050a0 2f 00 05 3c  	   lui        a1,0x2f
        001050a4 2d 18 40 00  	   move       v1,v0
        001050a8 c8 f6 a5 24  	   addiu      a1=>DAT_002ef6c8,a1,-0x938
        001050ac ff ff 84 34  	   ori        a0,a0,0xffff
        001050b0 ff ff 06 24  	   li         a2,-0x1
        001050b4 00 00 64 ac  	   sw         a0,0x0(v1)
        001050b8 08 00 65 ac  	   sw         a1=>DAT_002ef6c8,0x8(v1)
        001050bc 70 03 00 10  	   beq        zero,zero,LAB_00105e80
        001050c0 0c 00 66 ac  	   _sw        a2,0xc(v1)
                             LAB_001050c4                                    XREF[1]:     002ecef0(*)  
        001050c4 3c 07 06 0c  	   jal        MemoryAllocate                                   void * MemoryAllocate(uint memor
        001050c8 0c 00 04 24  	   _li        a0,0xc
        001050cc ff 00 03 3c  	   lui        v1,0xff
        001050d0 2f 00 04 3c  	   lui        a0,0x2f
        001050d4 2d 28 40 00  	   move       a1,v0
        001050d8 cc 06 00 10  	   beq        zero,zero,LAB_00106c0c
        001050dc 88 f3 84 24  	   _addiu     a0,a0,-0xc78
                             LAB_001050e0                                    XREF[1]:     002ece98(*)  
        001050e0 3c 07 06 0c  	   jal        MemoryAllocate                                   void * MemoryAllocate(uint memor
        001050e4 24 00 04 24  	   _li        a0,0x24
        001050e8 2d 20 40 00  	   move       a0,v0
        001050ec f8 ff 06 24  	   li         a2,-0x8
        001050f0 0c 00 83 8c  	   lw         v1,0xc(a0)
        001050f4 ff 00 02 3c  	   lui        v0,0xff
        001050f8 ff ff 42 34  	   ori        v0,v0,0xffff
        001050fc 2f 00 05 3c  	   lui        a1,0x2f
        00105100 24 18 66 00  	   and        v1,v1,a2
        00105104 f7 ff 07 24  	   li         a3,-0x9
        00105108 02 00 63 34  	   ori        v1,v1,0x2
        0010510c 48 f3 a5 24  	   addiu      a1=>DAT_002ef348,a1,-0xcb8
        00105110 24 18 67 00  	   and        v1,v1,a3
        00105114 00 00 82 ac  	   sw         v0,0x0(a0)
        00105118 08 00 85 ac  	   sw         a1=>DAT_002ef348,0x8(a0)
        0010511c 2d 10 80 00  	   move       v0,a0
        00105120 0c 00 83 ac  	   sw         v1,0xc(a0)
        00105124 04 00 80 ac  	   sw         zero,0x4(a0)
        00105128 10 00 80 ac  	   sw         zero,0x10(a0)
        0010512c 14 00 80 ac  	   sw         zero,0x14(a0)
        00105130 18 00 80 ac  	   sw         zero,0x18(a0)
        00105134 1c 00 80 ac  	   sw         zero,0x1c(a0)
        00105138 ba 06 00 10  	   beq        zero,zero,LAB_00106c24
        0010513c 20 00 80 ac  	   _sw        zero,0x20(a0)
                             LAB_00105140                                    XREF[1]:     002ece9c(*)  
        00105140 3c 07 06 0c  	   jal        MemoryAllocate                                   void * MemoryAllocate(uint memor
        00105144 28 00 04 24  	   _li        a0,0x28
        00105148 ff 00 04 3c  	   lui        a0,0xff
        0010514c 2f 00 05 3c  	   lui        a1,0x2f
        00105150 ff ff 06 3c  	   lui        a2,0xffff
        00105154 2d 18 40 00  	   move       v1,v0
        00105158 08 f3 a5 24  	   addiu      a1=>DAT_002ef308,a1,-0xcf8
        0010515c ff ff 84 34  	   ori        a0,a0,0xffff
        00105160 ff ff c6 34  	   ori        a2,a2,0xffff
        00105164 00 00 64 ac  	   sw         a0,0x0(v1)
        00105168 08 00 65 ac  	   sw         a1=>DAT_002ef308,0x8(v1)
        0010516c 0c 00 66 ac  	   sw         a2,0xc(v1)
        00105170 04 00 60 ac  	   sw         zero,0x4(v1)
        00105174 18 00 60 ac  	   sw         zero,0x18(v1)
        00105178 1c 00 60 ac  	   sw         zero,0x1c(v1)
        0010517c 20 00 60 ac  	   sw         zero,0x20(v1)
        00105180 a8 06 00 10  	   beq        zero,zero,LAB_00106c24
        00105184 24 00 60 ac  	   _sw        zero,0x24(v1)
                             LAB_00105188                                    XREF[1]:     002eceb0(*)  
        00105188 3c 07 06 0c  	   jal        MemoryAllocate                                   void * MemoryAllocate(uint memor
        0010518c 0c 00 04 24  	   _li        a0,0xc
        00105190 ff 00 03 3c  	   lui        v1,0xff
        00105194 2f 00 04 3c  	   lui        a0,0x2f
        00105198 2d 28 40 00  	   move       a1,v0
        0010519c 9b 06 00 10  	   beq        zero,zero,LAB_00106c0c
        001051a0 c8 f2 84 24  	   _addiu     a0,a0,-0xd38
                             LAB_001051a4                                    XREF[1]:     002ecf74(*)  
        001051a4 3c 07 06 0c  	   jal        MemoryAllocate                                   void * MemoryAllocate(uint memor
        001051a8 24 00 04 24  	   _li        a0,0x24
        001051ac ff 00 05 3c  	   lui        a1,0xff
        001051b0 2f 00 04 3c  	   lui        a0,0x2f
        001051b4 2d 18 40 00  	   move       v1,v0
        001051b8 48 f2 84 24  	   addiu      a0,a0,-0xdb8
        001051bc ff ff a5 34  	   ori        a1,a1,0xffff
        001051c0 08 00 64 ac  	   sw         a0=>DAT_002ef248,0x8(v1)
        001051c4 00 00 65 ac  	   sw         a1,0x0(v1)
        001051c8 04 00 60 ac  	   sw         zero,0x4(v1)
        001051cc 14 00 60 ac  	   sw         zero,0x14(v1)
        001051d0 18 00 60 ac  	   sw         zero,0x18(v1)
        001051d4 1c 00 60 ac  	   sw         zero,0x1c(v1)
        001051d8 92 06 00 10  	   beq        zero,zero,LAB_00106c24
        001051dc 20 00 60 ac  	   _sw        zero,0x20(v1)
                             LAB_001051e0                                    XREF[1]:     002ece64(*)  
        001051e0 3c 07 06 0c  	   jal        MemoryAllocate                                   void * MemoryAllocate(uint memor
        001051e4 10 00 04 24  	   _li        a0,0x10
        001051e8 ff 00 04 3c  	   lui        a0,0xff
        001051ec 2f 00 05 3c  	   lui        a1,0x2f
        001051f0 80 3f 01 3c  	   lui        at,0x3f80
        001051f4 00 00 81 44  	   mtc1       at,f0
        001051f8 2d 18 40 00  	   move       v1,v0
        001051fc 1a 02 00 10  	   beq        zero,zero,LAB_00105a68
        00105200 88 f6 a5 24  	   _addiu     a1=>DAT_002ef688,a1,-0x978
                             LAB_00105204                                    XREF[1]:     002ece68(*)  
        00105204 3c 07 06 0c  	   jal        MemoryAllocate                                   void * MemoryAllocate(uint memor
        00105208 10 00 04 24  	   _li        a0,0x10
        0010520c ff 00 04 3c  	   lui        a0,0xff
        00105210 2f 00 05 3c  	   lui        a1,0x2f
        00105214 80 3f 01 3c  	   lui        at,0x3f80
        00105218 00 00 81 44  	   mtc1       at,f0
        0010521c 2d 18 40 00  	   move       v1,v0
        00105220 11 02 00 10  	   beq        zero,zero,LAB_00105a68
        00105224 48 f6 a5 24  	   _addiu     a1=>DAT_002ef648,a1,-0x9b8
                             LAB_00105228                                    XREF[1]:     002ecedc(*)  
        00105228 3c 07 06 0c  	   jal        MemoryAllocate                                   void * MemoryAllocate(uint memor
        0010522c 10 00 04 24  	   _li        a0,0x10
        00105230 ff 00 04 3c  	   lui        a0,0xff
        00105234 2f 00 05 3c  	   lui        a1,0x2f
        00105238 80 3f 01 3c  	   lui        at,0x3f80
        0010523c 00 00 81 44  	   mtc1       at,f0
        00105240 2d 18 40 00  	   move       v1,v0
        00105244 08 02 00 10  	   beq        zero,zero,LAB_00105a68
        00105248 08 f4 a5 24  	   _addiu     a1=>DAT_002ef408,a1,-0xbf8
                             LAB_0010524c                                    XREF[1]:     002ecee0(*)  
        0010524c 3c 07 06 0c  	   jal        MemoryAllocate                                   void * MemoryAllocate(uint memor
        00105250 10 00 04 24  	   _li        a0,0x10
        00105254 ff 00 04 3c  	   lui        a0,0xff
        00105258 2f 00 05 3c  	   lui        a1,0x2f
        0010525c 80 3f 01 3c  	   lui        at,0x3f80
        00105260 00 00 81 44  	   mtc1       at,f0
        00105264 2d 18 40 00  	   move       v1,v0
        00105268 ff 01 00 10  	   beq        zero,zero,LAB_00105a68
        0010526c c8 f3 a5 24  	   _addiu     a1=>DAT_002ef3c8,a1,-0xc38
                             LAB_00105270                                    XREF[1]:     002ec800(*)  
        00105270 3c 07 06 0c  	   jal        MemoryAllocate                                   void * MemoryAllocate(uint memor
        00105274 14 00 04 24  	   _li        a0,0x14
        00105278 ff 00 04 3c  	   lui        a0,0xff
        0010527c 30 00 05 3c  	   lui        a1,0x30
        00105280 ff ff 06 3c  	   lui        a2,0xffff
        00105284 80 bf 01 3c  	   lui        at,0xbf80
        00105288 00 00 81 44  	   mtc1       at,f0
        0010528c 2d 18 40 00  	   move       v1,v0
        00105290 18 f3 a5 24  	   addiu      a1=>DAT_002ff318,a1,-0xce8
        00105294 ff ff 84 34  	   ori        a0,a0,0xffff
        00105298 ff ff c6 34  	   ori        a2,a2,0xffff
        0010529c 00 00 64 ac  	   sw         a0,0x0(v1)
        001052a0 08 00 65 ac  	   sw         a1=>DAT_002ff318,0x8(v1)
                             LAB_001052a4                                    XREF[2]:     00102ca8(j), 00103a98(j)  
        001052a4 0c 00 66 ac  	   sw         a2,0xc(v1)
                             LAB_001052a8                                    XREF[2]:     00102bd4(j), 00103788(j)  
        001052a8 10 00 60 e4  	   swc1       f0,0x10(v1)
        001052ac 5d 06 00 10  	   beq        zero,zero,LAB_00106c24
        001052b0 04 00 60 ac  	   _sw        zero,0x4(v1)
                             LAB_001052b4                                    XREF[1]:     002ec804(*)  
        001052b4 3c 07 06 0c  	   jal        MemoryAllocate                                   void * MemoryAllocate(uint memor
        001052b8 0c 00 04 24  	   _li        a0,0xc
        001052bc ff 00 03 3c  	   lui        v1,0xff
        001052c0 30 00 04 3c  	   lui        a0,0x30
        001052c4 2d 28 40 00  	   move       a1,v0
        001052c8 50 06 00 10  	   beq        zero,zero,LAB_00106c0c
        001052cc d8 f2 84 24  	   _addiu     a0,a0,-0xd28
                             LAB_001052d0                                    XREF[1]:     002ec808(*)  
        001052d0 3c 07 06 0c  	   jal        MemoryAllocate                                   void * MemoryAllocate(uint memor
        001052d4 0c 00 04 24  	   _li        a0,0xc
        001052d8 ff 00 03 3c  	   lui        v1,0xff
        001052dc 30 00 04 3c  	   lui        a0,0x30
        001052e0 2d 28 40 00  	   move       a1,v0
        001052e4 49 06 00 10  	   beq        zero,zero,LAB_00106c0c
        001052e8 98 f2 84 24  	   _addiu     a0,a0,-0xd68
                             LAB_001052ec                                    XREF[1]:     002ecd48(*)  
        001052ec 3c 07 06 0c  	   jal        MemoryAllocate                                   void * MemoryAllocate(uint memor
        001052f0 14 00 04 24  	   _li        a0,0x14
        001052f4 ff 00 04 3c  	   lui        a0,0xff
        001052f8 2f 00 05 3c  	   lui        a1,0x2f
        001052fc 2d 18 40 00  	   move       v1,v0
        00105300 88 fd a5 24  	   addiu      a1=>DAT_002efd88,a1,-0x278
        00105304 ff ff 84 34  	   ori        a0,a0,0xffff
        00105308 ff ff 06 24  	   li         a2,-0x1
        0010530c 00 00 64 ac  	   sw         a0,0x0(v1)
        00105310 08 00 65 ac  	   sw         a1=>DAT_002efd88,0x8(v1)
        00105314 d1 00 00 10  	   beq        zero,zero,LAB_0010565c
        00105318 10 00 66 ac  	   _sw        a2,0x10(v1)
                             LAB_0010531c                                    XREF[1]:     002ecd4c(*)  
        0010531c 3c 07 06 0c  	   jal        MemoryAllocate                                   void * MemoryAllocate(uint memor
        00105320 0c 00 04 24  	   _li        a0,0xc
        00105324 ff 00 03 3c  	   lui        v1,0xff
        00105328 2f 00 04 3c  	   lui        a0,0x2f
        0010532c 2d 28 40 00  	   move       a1,v0
        00105330 36 06 00 10  	   beq        zero,zero,LAB_00106c0c
        00105334 70 1e 84 24  	   _addiu     a0,a0,0x1e70
                             LAB_00105338                                    XREF[1]:     002ece28(*)  
        00105338 3c 07 06 0c  	   jal        MemoryAllocate                                   void * MemoryAllocate(uint memor
        0010533c 54 00 04 24  	   _li        a0,0x54
        00105340 2f 00 04 3c  	   lui        a0,0x2f
        00105344 2d 80 40 00  	   move       s0,v0
        00105348 08 f0 84 24  	   addiu      a0,a0,-0xff8
        0010534c ff 00 03 3c  	   lui        v1,0xff
        00105350 ff ff 63 34  	   ori        v1,v1,0xffff
        00105354 08 00 04 ae  	   sw         a0=>DAT_002ef008,0x8(s0)
        00105358 00 00 03 ae  	   sw         v1,0x0(s0)
        0010535c 0c 00 04 26  	   addiu      a0,s0,0xc
        00105360 2c fb 08 0c  	   jal        FUN_0023ecb0                                     undefined8 FUN_0023ecb0(undefine
        00105364 04 00 00 ae  	   _sw        zero,0x4(s0)
        00105368 2e 06 00 10  	   beq        zero,zero,LAB_00106c24
        0010536c 2d 10 00 02  	   _move      v0,s0
                             LAB_00105370                                    XREF[1]:     002ec888(*)  
        00105370 3c 07 06 0c  	   jal        MemoryAllocate                                   void * MemoryAllocate(uint memor
        00105374 10 00 04 24  	   _li        a0,0x10
        00105378 ff 00 04 3c  	   lui        a0,0xff
        0010537c 30 00 05 3c  	   lui        a1,0x30
        00105380 80 3f 01 3c  	   lui        at,0x3f80
        00105384 00 00 81 44  	   mtc1       at,f0
        00105388 2d 18 40 00  	   move       v1,v0
        0010538c b6 01 00 10  	   beq        zero,zero,LAB_00105a68
        00105390 18 f2 a5 24  	   _addiu     a1=>DAT_002ff218,a1,-0xde8
                             LAB_00105394                                    XREF[1]:     002ecf34(*)  
        00105394 3c 07 06 0c  	   jal        MemoryAllocate                                   void * MemoryAllocate(uint memor
        00105398 24 00 04 24  	   _li        a0,0x24
        0010539c 2d 18 40 00  	   move       v1,v0
        001053a0 fd ff 07 24  	   li         a3,-0x3
        001053a4 14 00 64 8c  	   lw         a0,0x14(v1)
        001053a8 fe ff 02 24  	   li         v0,-0x2
        001053ac 80 3f 01 3c  	   lui        at,0x3f80
        001053b0 00 00 81 44  	   mtc1       at,f0
        001053b4 ff 00 05 3c  	   lui        a1,0xff
        001053b8 24 20 82 00  	   and        a0,a0,v0
        001053bc 2f 00 06 3c  	   lui        a2,0x2f
        001053c0 24 20 87 00  	   and        a0,a0,a3
        001053c4 fb ff 02 24  	   li         v0,-0x5
        001053c8 ff 00 07 24  	   li         a3,0xff
        001053cc 24 20 82 00  	   and        a0,a0,v0
        001053d0 20 e6 c6 24  	   addiu      a2=>DAT_002ee620,a2,-0x19e0
        001053d4 ff ff a5 34  	   ori        a1,a1,0xffff
        001053d8 00 00 65 ac  	   sw         a1,0x0(v1)
        001053dc 2d 10 60 00  	   move       v0,v1
        001053e0 08 00 66 ac  	   sw         a2=>DAT_002ee620,0x8(v1)
        001053e4 14 00 64 ac  	   sw         a0,0x14(v1)
        001053e8 1c 00 60 e4  	   swc1       f0,0x1c(v1)
        001053ec 22 00 67 a0  	   sb         a3,0x22(v1)
        001053f0 04 00 60 ac  	   sw         zero,0x4(v1)
        001053f4 0c 00 67 a0  	   sb         a3,0xc(v1)
        001053f8 52 00 00 10  	   beq        zero,zero,LAB_00105544
        001053fc 10 00 60 ac  	   _sw        zero,0x10(v1)
                             LAB_00105400                                    XREF[1]:     002ecf38(*)  
        00105400 3c 07 06 0c  	   jal        MemoryAllocate                                   void * MemoryAllocate(uint memor
        00105404 24 00 04 24  	   _li        a0,0x24
        00105408 2d 18 40 00  	   move       v1,v0
        0010540c fd ff 07 24  	   li         a3,-0x3
        00105410 14 00 64 8c  	   lw         a0,0x14(v1)
        00105414 fe ff 02 24  	   li         v0,-0x2
        00105418 80 3f 01 3c  	   lui        at,0x3f80
        0010541c 00 00 81 44  	   mtc1       at,f0
        00105420 ff 00 06 3c  	   lui        a2,0xff
        00105424 24 20 82 00  	   and        a0,a0,v0
        00105428 2f 00 05 3c  	   lui        a1,0x2f
        0010542c 24 20 87 00  	   and        a0,a0,a3
        00105430 fb ff 02 24  	   li         v0,-0x5
        00105434 ff 00 07 24  	   li         a3,0xff
        00105438 24 20 82 00  	   and        a0,a0,v0
        0010543c 20 e6 a5 24  	   addiu      a1=>DAT_002ee620,a1,-0x19e0
        00105440 36 00 00 10  	   beq        zero,zero,LAB_0010551c
        00105444 02 00 08 24  	   _li        t0,0x2
                             LAB_00105448                                    XREF[1]:     002ecf3c(*)  
        00105448 3c 07 06 0c  	   jal        MemoryAllocate                                   void * MemoryAllocate(uint memor
        0010544c 24 00 04 24  	   _li        a0,0x24
        00105450 2d 18 40 00  	   move       v1,v0
        00105454 fd ff 07 24  	   li         a3,-0x3
        00105458 14 00 64 8c  	   lw         a0,0x14(v1)
        0010545c fe ff 02 24  	   li         v0,-0x2
        00105460 80 3f 01 3c  	   lui        at,0x3f80
        00105464 00 00 81 44  	   mtc1       at,f0
        00105468 ff 00 06 3c  	   lui        a2,0xff
        0010546c 24 20 82 00  	   and        a0,a0,v0
        00105470 2f 00 05 3c  	   lui        a1,0x2f
        00105474 24 20 87 00  	   and        a0,a0,a3
        00105478 fb ff 02 24  	   li         v0,-0x5
        0010547c ff 00 07 24  	   li         a3,0xff
        00105480 24 20 82 00  	   and        a0,a0,v0
        00105484 20 e6 a5 24  	   addiu      a1=>DAT_002ee620,a1,-0x19e0
        00105488 24 00 00 10  	   beq        zero,zero,LAB_0010551c
        0010548c 01 00 08 24  	   _li        t0,0x1
                             LAB_00105490                                    XREF[1]:     002ecf40(*)  
        00105490 3c 07 06 0c  	   jal        MemoryAllocate                                   void * MemoryAllocate(uint memor
        00105494 24 00 04 24  	   _li        a0,0x24
        00105498 2d 18 40 00  	   move       v1,v0
        0010549c fd ff 07 24  	   li         a3,-0x3
        001054a0 14 00 64 8c  	   lw         a0,0x14(v1)
        001054a4 fe ff 02 24  	   li         v0,-0x2
        001054a8 80 3f 01 3c  	   lui        at,0x3f80
        001054ac 00 00 81 44  	   mtc1       at,f0
        001054b0 ff 00 06 3c  	   lui        a2,0xff
        001054b4 24 20 82 00  	   and        a0,a0,v0
        001054b8 2f 00 05 3c  	   lui        a1,0x2f
        001054bc 24 20 87 00  	   and        a0,a0,a3
        001054c0 fb ff 02 24  	   li         v0,-0x5
        001054c4 ff 00 07 24  	   li         a3,0xff
        001054c8 24 20 82 00  	   and        a0,a0,v0
        001054cc 20 e6 a5 24  	   addiu      a1=>DAT_002ee620,a1,-0x19e0
        001054d0 12 00 00 10  	   beq        zero,zero,LAB_0010551c
        001054d4 03 00 08 24  	   _li        t0,0x3
                             LAB_001054d8                                    XREF[1]:     002ecf64(*)  
        001054d8 3c 07 06 0c  	   jal        MemoryAllocate                                   void * MemoryAllocate(uint memor
        001054dc 24 00 04 24  	   _li        a0,0x24
        001054e0 2d 18 40 00  	   move       v1,v0
        001054e4 fd ff 07 24  	   li         a3,-0x3
        001054e8 14 00 64 8c  	   lw         a0,0x14(v1)
        001054ec fe ff 02 24  	   li         v0,-0x2
        001054f0 80 3f 01 3c  	   lui        at,0x3f80
        001054f4 00 00 81 44  	   mtc1       at,f0
        001054f8 ff 00 06 3c  	   lui        a2,0xff
        001054fc 24 20 82 00  	   and        a0,a0,v0
        00105500 2f 00 05 3c  	   lui        a1,0x2f
        00105504 24 20 87 00  	   and        a0,a0,a3
        00105508 fb ff 02 24  	   li         v0,-0x5
        0010550c ff 00 07 24  	   li         a3,0xff
        00105510 24 20 82 00  	   and        a0,a0,v0
        00105514 20 e6 a5 24  	   addiu      a1=>DAT_002ee620,a1,-0x19e0
        00105518 04 00 08 24  	   li         t0,0x4
                             LAB_0010551c                                    XREF[3]:     00105440(j), 00105488(j), 
                                                                                          001054d0(j)  
        0010551c ff ff c6 34  	   ori        a2,a2,0xffff
        00105520 08 00 65 ac  	   sw         a1=>DAT_002ee620,0x8(v1)
        00105524 00 00 66 ac  	   sw         a2,0x0(v1)
        00105528 2d 10 60 00  	   move       v0,v1
        0010552c 10 00 68 ac  	   sw         t0,0x10(v1)
        00105530 14 00 64 ac  	   sw         a0,0x14(v1)
        00105534 1c 00 60 e4  	   swc1       f0,0x1c(v1)
        00105538 22 00 67 a0  	   sb         a3,0x22(v1)
        0010553c 04 00 60 ac  	   sw         zero,0x4(v1)
        00105540 0c 00 67 a0  	   sb         a3,0xc(v1)
                             LAB_00105544                                    XREF[1]:     001053f8(j)  
        00105544 18 00 60 e4  	   swc1       f0,0x18(v1)
        00105548 20 00 67 a0  	   sb         a3,0x20(v1)
        0010554c b5 05 00 10  	   beq        zero,zero,LAB_00106c24
        00105550 21 00 67 a0  	   _sb        a3,0x21(v1)
                             LAB_00105554                                    XREF[1]:     002ecee8(*)  
        00105554 3c 07 06 0c  	   jal        MemoryAllocate                                   void * MemoryAllocate(uint memor
        00105558 10 00 04 24  	   _li        a0,0x10
                             **************************************************************
                             *                          FUNCTION                          *
                             **************************************************************
                             undefined FUN_0010555c()
                               assume gp_lo = 0x311870
             undefined         v0_lo:1        <RETURN>
                             FUN_0010555c
        0010555c 2d 18 40 00  	   move       v1,v0
        00105560 ff 00 05 3c  	   lui        a1,0xff
        00105564 ff 00 02 24  	   li         v0,0xff
        00105568 ff fe 06 24  	   li         a2,-0x101
        0010556c 0c 00 62 a0  	   sb         v0,0xc(v1)
        00105570 ff ff a5 34  	   ori        a1,a1,0xffff
        00105574 2f 00 02 3c  	   lui        v0,0x2f
        00105578 00 00 65 ac  	   sw         a1,0x0(v1)
        0010557c 0c 00 64 8c  	   lw         a0,0xc(v1)
        00105580 88 ee 42 24  	   addiu      v0,v0,-0x1178
        00105584 08 00 62 ac  	   sw         v0=>DAT_002eee88,0x8(v1)
        00105588 24 20 86 00  	   and        a0,a0,a2
        0010558c 90 04 00 10  	   beq        zero,zero,LAB_001067d0
        00105590 2d 10 60 00  	   _move      v0,v1
                             LAB_00105594                                    XREF[1]:     002ecdf4(*)  
        00105594 3c 07 06 0c  	   jal        MemoryAllocate                                   void * MemoryAllocate(uint memor
        00105598 10 00 04 24  	   _li        a0,0x10
        0010559c ff 00 03 3c  	   lui        v1,0xff
        001055a0 2f 00 04 3c  	   lui        a0,0x2f
        001055a4 2d 28 40 00  	   move       a1,v0
        001055a8 98 05 00 10  	   beq        zero,zero,LAB_00106c0c
        001055ac c8 fc 84 24  	   _addiu     a0,a0,-0x338
                             LAB_001055b0                                    XREF[1]:     002ecdf8(*)  
        001055b0 3c 07 06 0c  	   jal        MemoryAllocate                                   void * MemoryAllocate(uint memor
        001055b4 0c 00 04 24  	   _li        a0,0xc
        001055b8 ff 00 03 3c  	   lui        v1,0xff
        001055bc 2f 00 04 3c  	   lui        a0,0x2f
        001055c0 2d 28 40 00  	   move       a1,v0
        001055c4 91 05 00 10  	   beq        zero,zero,LAB_00106c0c
        001055c8 88 fc 84 24  	   _addiu     a0,a0,-0x378
                             LAB_001055cc                                    XREF[1]:     002ece38(*)  
        001055cc 3c 07 06 0c  	   jal        MemoryAllocate                                   void * MemoryAllocate(uint memor
        001055d0 10 00 04 24  	   _li        a0,0x10
        001055d4 2d 18 40 00  	   move       v1,v0
        001055d8 fe ff 04 3c  	   lui        a0,0xfffe
        001055dc ff ff 02 34  	   ori        v0,zero,0xffff
        001055e0 ff ff 84 34  	   ori        a0,a0,0xffff
        001055e4 0c 00 62 a4  	   sh         v0,0xc(v1)
        001055e8 ff 00 05 3c  	   lui        a1,0xff
        001055ec fd ff 02 3c  	   lui        v0,0xfffd
        001055f0 2f 00 07 3c  	   lui        a3,0x2f
        001055f4 0c 00 66 8c  	   lw         a2,0xc(v1)
        001055f8 ff ff 42 34  	   ori        v0,v0,0xffff
        001055fc 48 fc e7 24  	   addiu      a3=>DAT_002efc48,a3,-0x3b8
        00105600 ff ff a5 34  	   ori        a1,a1,0xffff
        00105604 24 30 c4 00  	   and        a2,a2,a0
        00105608 00 00 65 ac  	   sw         a1,0x0(v1)
        0010560c 24 30 c2 00  	   and        a2,a2,v0
        00105610 08 00 67 ac  	   sw         a3=>DAT_002efc48,0x8(v1)
        00105614 86 03 00 10  	   beq        zero,zero,LAB_00106430
        00105618 2d 10 60 00  	   _move      v0,v1
                             LAB_0010561c                                    XREF[1]:     002ecd54(*)  
        0010561c 3c 07 06 0c  	   jal        MemoryAllocate                                   void * MemoryAllocate(uint memor
        00105620 14 00 04 24  	   _li        a0,0x14
        00105624 2d 18 40 00  	   move       v1,v0
        00105628 fe ff 07 24  	   li         a3,-0x2
        0010562c 10 00 64 8c  	   lw         a0,0x10(v1)
        00105630 ff 00 02 3c  	   lui        v0,0xff
        00105634 ff ff 42 34  	   ori        v0,v0,0xffff
        00105638 2f 00 05 3c  	   lui        a1,0x2f
        0010563c fd ff 06 24  	   li         a2,-0x3
        00105640 24 20 87 00  	   and        a0,a0,a3
        00105644 48 fd a5 24  	   addiu      a1=>DAT_002efd48,a1,-0x2b8
        00105648 24 20 86 00  	   and        a0,a0,a2
        0010564c 00 00 62 ac  	   sw         v0,0x0(v1)
        00105650 2d 10 60 00  	   move       v0,v1
        00105654 08 00 65 ac  	   sw         a1=>DAT_002efd48,0x8(v1)
        00105658 10 00 64 ac  	   sw         a0,0x10(v1)
                             LAB_0010565c                                    XREF[1]:     00105314(j)  
        0010565c 04 00 60 ac  	   sw         zero,0x4(v1)
        00105660 0c 00 60 a4  	   sh         zero,0xc(v1)
        00105664 6f 05 00 10  	   beq        zero,zero,LAB_00106c24
        00105668 0e 00 60 a4  	   _sh        zero,0xe(v1)
                             LAB_0010566c                                    XREF[1]:     002ecd58(*)  
        0010566c 3c 07 06 0c  	   jal        MemoryAllocate                                   void * MemoryAllocate(uint memor
        00105670 0c 00 04 24  	   _li        a0,0xc
        00105674 ff 00 03 3c  	   lui        v1,0xff
        00105678 2f 00 04 3c  	   lui        a0,0x2f
        0010567c 2d 28 40 00  	   move       a1,v0
        00105680 62 05 00 10  	   beq        zero,zero,LAB_00106c0c
        00105684 b0 1e 84 24  	   _addiu     a0,a0,0x1eb0
                             LAB_00105688                                    XREF[1]:     002ecd5c(*)  
        00105688 3c 07 06 0c  	   jal        MemoryAllocate                                   void * MemoryAllocate(uint memor
        0010568c 3c 00 04 24  	   _li        a0,0x3c
        00105690 ff 00 03 3c  	   lui        v1,0xff
        00105694 2f 00 05 3c  	   lui        a1,0x2f
        00105698 2d 80 40 00  	   move       s0,v0
        0010569c e8 01 a5 24  	   addiu      a1=>DAT_002f01e8,a1,0x1e8
        001056a0 ff ff 63 34  	   ori        v1,v1,0xffff
        001056a4 48 42 01 3c  	   lui        at,0x4248
        001056a8 00 60 81 44  	   mtc1       at,f12
        001056ac 00 00 03 ae  	   sw         v1,0x0(s0)
        001056b0 0c 00 04 26  	   addiu      a0,s0,0xc
        001056b4 08 00 05 ae  	   sw         a1=>DAT_002f01e8,0x8(s0)
        001056b8 36 26 08 0c  	   jal        FUN_002098d8                                     undefined8 FUN_002098d8(uint par
        001056bc 04 00 00 ae  	   _sw        zero,0x4(s0)
        001056c0 00 60 80 44  	   clear      f12
        001056c4 36 26 08 0c  	   jal        FUN_002098d8                                     undefined8 FUN_002098d8(uint par
        001056c8 10 00 04 26  	   _addiu     a0,s0,0x10
        001056cc 00 60 80 44  	   clear      f12
        001056d0 36 26 08 0c  	   jal        FUN_002098d8                                     undefined8 FUN_002098d8(uint par
        001056d4 14 00 04 26  	   _addiu     a0,s0,0x14
        001056d8 00 60 80 44  	   clear      f12
        001056dc 36 26 08 0c  	   jal        FUN_002098d8                                     undefined8 FUN_002098d8(uint par
        001056e0 18 00 04 26  	   _addiu     a0,s0,0x18
        001056e4 00 60 80 44  	   clear      f12
        001056e8 36 26 08 0c  	   jal        FUN_002098d8                                     undefined8 FUN_002098d8(uint par
        001056ec 1c 00 04 26  	   _addiu     a0,s0,0x1c
        001056f0 00 60 80 44  	   clear      f12
        001056f4 36 26 08 0c  	   jal        FUN_002098d8                                     undefined8 FUN_002098d8(uint par
        001056f8 20 00 04 26  	   _addiu     a0,s0,0x20
        001056fc 00 60 80 44  	   clear      f12
        00105700 36 26 08 0c  	   jal        FUN_002098d8                                     undefined8 FUN_002098d8(uint par
        00105704 24 00 04 26  	   _addiu     a0,s0,0x24
        00105708 28 00 03 8e  	   lw         v1,0x28(s0)
        0010570c fe ff 02 24  	   li         v0,-0x2
        00105710 fd ff 04 24  	   li         a0,-0x3
        00105714 fb ff 05 24  	   li         a1,-0x5
        00105718 24 18 62 00  	   and        v1,v1,v0
        0010571c f7 ff 06 24  	   li         a2,-0x9
        00105720 24 18 64 00  	   and        v1,v1,a0
        00105724 2f 00 02 3c  	   lui        v0,0x2f
        00105728 24 18 65 00  	   and        v1,v1,a1
        0010572c a0 01 42 24  	   addiu      v0,v0,0x1a0
        00105730 24 18 66 00  	   and        v1,v1,a2
        00105734 00 60 80 44  	   clear      f12
        00105738 28 00 03 ae  	   sw         v1,0x28(s0)
        0010573c 2c 00 04 26  	   addiu      a0,s0,0x2c
        00105740 36 26 08 0c  	   jal        FUN_002098d8                                     undefined8 FUN_002098d8(uint par
        00105744 08 00 02 ae  	   _sw        v0=>DAT_002f01a0,0x8(s0)
        00105748 00 60 80 44  	   clear      f12
        0010574c 36 26 08 0c  	   jal        FUN_002098d8                                     undefined8 FUN_002098d8(uint par
        00105750 30 00 04 26  	   _addiu     a0,s0,0x30
        00105754 00 60 80 44  	   clear      f12
        00105758 36 26 08 0c  	   jal        FUN_002098d8                                     undefined8 FUN_002098d8(uint par
        0010575c 34 00 04 26  	   _addiu     a0,s0,0x34
        00105760 ff 00 03 24  	   li         v1,0xff
        00105764 2d 10 00 02  	   move       v0,s0
        00105768 2e 05 00 10  	   beq        zero,zero,LAB_00106c24
        0010576c 38 00 03 ae  	   _sw        v1,0x38(s0)
                             LAB_00105770                                    XREF[1]:     002ecd68(*)  
        00105770 3c 07 06 0c  	   jal        MemoryAllocate                                   void * MemoryAllocate(uint memor
        00105774 2c 00 04 24  	   _li        a0,0x2c
        00105778 ff 00 03 3c  	   lui        v1,0xff
        0010577c 2f 00 05 3c  	   lui        a1,0x2f
        00105780 2d 80 40 00  	   move       s0,v0
        00105784 e8 01 a5 24  	   addiu      a1=>DAT_002f01e8,a1,0x1e8
        00105788 ff ff 63 34  	   ori        v1,v1,0xffff
        0010578c 48 42 01 3c  	   lui        at,0x4248
        00105790 00 60 81 44  	   mtc1       at,f12
        00105794 00 00 03 ae  	   sw         v1,0x0(s0)
        00105798 0c 00 04 26  	   addiu      a0,s0,0xc
        0010579c 08 00 05 ae  	   sw         a1=>DAT_002f01e8,0x8(s0)
        001057a0 36 26 08 0c  	   jal        FUN_002098d8                                     undefined8 FUN_002098d8(uint par
        001057a4 04 00 00 ae  	   _sw        zero,0x4(s0)
        001057a8 00 60 80 44  	   clear      f12
        001057ac 36 26 08 0c  	   jal        FUN_002098d8                                     undefined8 FUN_002098d8(uint par
        001057b0 10 00 04 26  	   _addiu     a0,s0,0x10
        001057b4 00 60 80 44  	   clear      f12
        001057b8 36 26 08 0c  	   jal        FUN_002098d8                                     undefined8 FUN_002098d8(uint par
        001057bc 14 00 04 26  	   _addiu     a0,s0,0x14
        001057c0 00 60 80 44  	   clear      f12
        001057c4 36 26 08 0c  	   jal        FUN_002098d8                                     undefined8 FUN_002098d8(uint par
        001057c8 18 00 04 26  	   _addiu     a0,s0,0x18
        001057cc 00 60 80 44  	   clear      f12
        001057d0 36 26 08 0c  	   jal        FUN_002098d8                                     undefined8 FUN_002098d8(uint par
        001057d4 1c 00 04 26  	   _addiu     a0,s0,0x1c
        001057d8 00 60 80 44  	   clear      f12
        001057dc 36 26 08 0c  	   jal        FUN_002098d8                                     undefined8 FUN_002098d8(uint par
        001057e0 20 00 04 26  	   _addiu     a0,s0,0x20
        001057e4 00 60 80 44  	   clear      f12
        001057e8 36 26 08 0c  	   jal        FUN_002098d8                                     undefined8 FUN_002098d8(uint par
        001057ec 24 00 04 26  	   _addiu     a0,s0,0x24
        001057f0 28 00 03 8e  	   lw         v1,0x28(s0)
        001057f4 fe ff 02 24  	   li         v0,-0x2
        001057f8 fd ff 04 24  	   li         a0,-0x3
        001057fc fb ff 06 24  	   li         a2,-0x5
        00105800 24 18 62 00  	   and        v1,v1,v0
        00105804 f7 ff 05 24  	   li         a1,-0x9
        00105808 24 18 64 00  	   and        v1,v1,a0
        0010580c 2d 10 00 02  	   move       v0,s0
        00105810 24 18 66 00  	   and        v1,v1,a2
        00105814 24 18 65 00  	   and        v1,v1,a1
        00105818 02 05 00 10  	   beq        zero,zero,LAB_00106c24
        0010581c 28 00 03 ae  	   _sw        v1,0x28(s0)
                             LAB_00105820                                    XREF[1]:     002ecd84(*)  
        00105820 3c 07 06 0c  	   jal        MemoryAllocate                                   void * MemoryAllocate(uint memor
        00105824 10 00 04 24  	   _li        a0,0x10
        00105828 ff 00 03 3c  	   lui        v1,0xff
        0010582c 2f 00 05 3c  	   lui        a1,0x2f
        00105830 2d 80 40 00  	   move       s0,v0
        00105834 60 01 a5 24  	   addiu      a1=>DAT_002f0160,a1,0x160
        00105838 ff ff 63 34  	   ori        v1,v1,0xffff
        0010583c 80 3f 01 3c  	   lui        at,0x3f80
        00105840 00 60 81 44  	   mtc1       at,f12
        00105844 00 00 03 ae  	   sw         v1,0x0(s0)
        00105848 0c 00 04 26  	   addiu      a0,s0,0xc
        0010584c 08 00 05 ae  	   sw         a1=>DAT_002f0160,0x8(s0)
        00105850 cb 04 00 10  	   beq        zero,zero,LAB_00106b80
        00105854 04 00 00 ae  	   _sw        zero,0x4(s0)
                             LAB_00105858                                    XREF[1]:     002ecd6c(*)  
        00105858 3c 07 06 0c  	   jal        MemoryAllocate                                   void * MemoryAllocate(uint memor
        0010585c 10 00 04 24  	   _li        a0,0x10
        00105860 ff 00 03 3c  	   lui        v1,0xff
        00105864 2f 00 04 3c  	   lui        a0,0x2f
        00105868 2d 28 40 00  	   move       a1,v0
        0010586c 66 01 00 10  	   beq        zero,zero,LAB_00105e08
        00105870 20 01 84 24  	   _addiu     a0,a0,0x120
                             LAB_00105874                                    XREF[1]:     002ece8c(*)  
        00105874 3c 07 06 0c  	   jal        MemoryAllocate                                   void * MemoryAllocate(uint memor
        00105878 0c 00 04 24  	   _li        a0,0xc
        0010587c ff 00 03 3c  	   lui        v1,0xff
        00105880 2f 00 04 3c  	   lui        a0,0x2f
        00105884 2d 28 40 00  	   move       a1,v0
        00105888 e0 04 00 10  	   beq        zero,zero,LAB_00106c0c
        0010588c c8 fb 84 24  	   _addiu     a0,a0,-0x438
                             LAB_00105890                                    XREF[1]:     002ecea0(*)  
        00105890 3c 07 06 0c  	   jal        MemoryAllocate                                   void * MemoryAllocate(uint memor
        00105894 0c 00 04 24  	   _li        a0,0xc
        00105898 ff 00 03 3c  	   lui        v1,0xff
        0010589c 2f 00 04 3c  	   lui        a0,0x2f
        001058a0 2d 28 40 00  	   move       a1,v0
        001058a4 d9 04 00 10  	   beq        zero,zero,LAB_00106c0c
        001058a8 88 fb 84 24  	   _addiu     a0,a0,-0x478
                             LAB_001058ac                                    XREF[1]:     002ecf80(*)  
        001058ac 3c 07 06 0c  	   jal        MemoryAllocate                                   void * MemoryAllocate(uint memor
        001058b0 10 00 04 24  	   _li        a0,0x10
        001058b4 ff 00 03 3c  	   lui        v1,0xff
        001058b8 2f 00 04 3c  	   lui        a0,0x2f
        001058bc 2d 28 40 00  	   move       a1,v0
        001058c0 d2 04 00 10  	   beq        zero,zero,LAB_00106c0c
        001058c4 c8 f9 84 24  	   _addiu     a0,a0,-0x638
                             LAB_001058c8                                    XREF[1]:     002ecf7c(*)  
        001058c8 3c 07 06 0c  	   jal        MemoryAllocate                                   void * MemoryAllocate(uint memor
        001058cc 10 00 04 24  	   _li        a0,0x10
        001058d0 2d 28 40 00  	   move       a1,v0
        001058d4 fe ff 06 24  	   li         a2,-0x2
        001058d8 0c 00 a3 8c  	   lw         v1,0xc(a1)
        001058dc fd ff 07 24  	   li         a3,-0x3
        001058e0 fb ff 08 24  	   li         t0,-0x5
        001058e4 ff 00 02 3c  	   lui        v0,0xff
        001058e8 24 18 66 00  	   and        v1,v1,a2
        001058ec ff ff 42 34  	   ori        v0,v0,0xffff
        001058f0 24 18 67 00  	   and        v1,v1,a3
        001058f4 2f 00 04 3c  	   lui        a0,0x2f
        001058f8 f7 ff 06 24  	   li         a2,-0x9
        001058fc 24 18 68 00  	   and        v1,v1,t0
        00105900 08 fa 84 24  	   addiu      a0,a0,-0x5f8
                             LAB_00105904                                    XREF[3]:     001026a4(j), 001039ec(j), 
                                                                                          00104040(j)  
        00105904 24 18 66 00  	   and        v1,v1,a2
        00105908 00 00 a2 ac  	   sw         v0,0x0(a1)
        0010590c 2d 10 a0 00  	   move       v0,a1
        00105910 08 00 a4 ac  	   sw         a0=>DAT_002efa08,0x8(a1)
        00105914 0c 00 a3 ac  	   sw         v1,0xc(a1)
        00105918 c2 04 00 10  	   beq        zero,zero,LAB_00106c24
        0010591c 04 00 a0 ac  	   _sw        zero,0x4(a1)
                             LAB_00105920                                    XREF[1]:     002ecea4(*)  
        00105920 3c 07 06 0c  	   jal        MemoryAllocate                                   void * MemoryAllocate(uint memor
        00105924 10 00 04 24  	   _li        a0,0x10
        00105928 ff 00 04 3c  	   lui        a0,0xff
        0010592c 2f 00 05 3c  	   lui        a1,0x2f
        00105930 2d 18 40 00  	   move       v1,v0
        00105934 08 fb a5 24  	   addiu      a1=>DAT_002efb08,a1,-0x4f8
        00105938 ff ff 84 34  	   ori        a0,a0,0xffff
        0010593c ba 02 00 10  	   beq        zero,zero,LAB_00106428
        00105940 06 00 06 24  	   _li        a2,0x6
                             LAB_00105944                                    XREF[1]:     002eced0(*)  
        00105944 3c 07 06 0c  	   jal        MemoryAllocate                                   void * MemoryAllocate(uint memor
        00105948 10 00 04 24  	   _li        a0,0x10
        0010594c ff 00 04 3c  	   lui        a0,0xff
        00105950 2f 00 05 3c  	   lui        a1,0x2f
        00105954 2d 18 40 00  	   move       v1,v0
        00105958 c8 fa a5 24  	   addiu      a1=>DAT_002efac8,a1,-0x538
        0010595c ff ff 84 34  	   ori        a0,a0,0xffff
        00105960 b1 02 00 10  	   beq        zero,zero,LAB_00106428
        00105964 06 00 06 24  	   _li        a2,0x6
                             LAB_00105968                                    XREF[1]:     002ecebc(*)  
        00105968 3c 07 06 0c  	   jal        MemoryAllocate                                   void * MemoryAllocate(uint memor
        0010596c 0c 00 04 24  	   _li        a0,0xc
        00105970 ff 00 03 3c  	   lui        v1,0xff
        00105974 2f 00 04 3c  	   lui        a0,0x2f
        00105978 2d 28 40 00  	   move       a1,v0
        0010597c a3 04 00 10  	   beq        zero,zero,LAB_00106c0c
        00105980 88 fa 84 24  	   _addiu     a0,a0,-0x578
                             LAB_00105984                                    XREF[1]:     002ecec0(*)  
        00105984 3c 07 06 0c  	   jal        MemoryAllocate                                   void * MemoryAllocate(uint memor
        00105988 0c 00 04 24  	   _li        a0,0xc
        0010598c ff 00 03 3c  	   lui        v1,0xff
        00105990 2f 00 04 3c  	   lui        a0,0x2f
        00105994 2d 28 40 00  	   move       a1,v0
        00105998 9c 04 00 10  	   beq        zero,zero,LAB_00106c0c
        0010599c 48 fa 84 24  	   _addiu     a0,a0,-0x5b8
                             LAB_001059a0                                    XREF[1]:     002ecec4(*)  
        001059a0 3c 07 06 0c  	   jal        MemoryAllocate                                   void * MemoryAllocate(uint memor
        001059a4 0c 00 04 24  	   _li        a0,0xc
        001059a8 ff 00 03 3c  	   lui        v1,0xff
        001059ac 2f 00 04 3c  	   lui        a0,0x2f
        001059b0 2d 28 40 00  	   move       a1,v0
        001059b4 95 04 00 10  	   beq        zero,zero,LAB_00106c0c
        001059b8 88 f9 84 24  	   _addiu     a0,a0,-0x678
                             LAB_001059bc                                    XREF[1]:     002ececc(*)  
        001059bc 3c 07 06 0c  	   jal        MemoryAllocate                                   void * MemoryAllocate(uint memor
        001059c0 10 00 04 24  	   _li        a0,0x10
        001059c4 2d 20 40 00  	   move       a0,v0
        001059c8 ff 00 03 3c  	   lui        v1,0xff
        001059cc 0c 00 85 8c  	   lw         a1,0xc(a0)
        001059d0 2f 00 02 3c  	   lui        v0,0x2f
        001059d4 48 f9 42 24  	   addiu      v0,v0,-0x6b8
        001059d8 ff ff 63 34  	   ori        v1,v1,0xffff
        001059dc 01 00 a5 34  	   ori        a1,a1,0x1
        001059e0 08 00 82 ac  	   sw         v0=>DAT_002ef948,0x8(a0)
        001059e4 00 00 83 ac  	   sw         v1,0x0(a0)
        001059e8 2d 10 80 00  	   move       v0,a0
        001059ec 0c 00 85 ac  	   sw         a1,0xc(a0)
        001059f0 8c 04 00 10  	   beq        zero,zero,LAB_00106c24
        001059f4 04 00 80 ac  	   _sw        zero,0x4(a0)
                             LAB_001059f8                                    XREF[1]:     002ecef4(*)  
        001059f8 3c 07 06 0c  	   jal        MemoryAllocate                                   void * MemoryAllocate(uint memor
        001059fc 14 00 04 24  	   _li        a0,0x14
        00105a00 2d 20 40 00  	   move       a0,v0
        00105a04 ef ff 07 24  	   li         a3,-0x11
        00105a08 0c 00 83 8c  	   lw         v1,0xc(a0)
        00105a0c ff 00 02 3c  	   lui        v0,0xff
        00105a10 ff ff 42 34  	   ori        v0,v0,0xffff
        00105a14 2f 00 05 3c  	   lui        a1,0x2f
        00105a18 0f 00 63 34  	   ori        v1,v1,0xf
        00105a1c 08 f9 a5 24  	   addiu      a1=>DAT_002ef908,a1,-0x6f8
        00105a20 24 18 67 00  	   and        v1,v1,a3
        00105a24 06 00 06 24  	   li         a2,0x6
        00105a28 e0 1f 63 34  	   ori        v1,v1,0x1fe0
        00105a2c 00 00 82 ac  	   sw         v0,0x0(a0)
        00105a30 08 00 85 ac  	   sw         a1=>DAT_002ef908,0x8(a0)
        00105a34 2d 10 80 00  	   move       v0,a0
        00105a38 0c 00 83 ac  	   sw         v1,0xc(a0)
        00105a3c 10 00 86 ac  	   sw         a2,0x10(a0)
        00105a40 78 04 00 10  	   beq        zero,zero,LAB_00106c24
        00105a44 04 00 80 ac  	   _sw        zero,0x4(a0)
                             LAB_00105a48                                    XREF[1]:     002ecf0c(*)  
        00105a48 3c 07 06 0c  	   jal        MemoryAllocate                                   void * MemoryAllocate(uint memor
        00105a4c 10 00 04 24  	   _li        a0,0x10
        00105a50 ff 00 04 3c  	   lui        a0,0xff
        00105a54 2f 00 05 3c  	   lui        a1,0x2f
        00105a58 0c 42 01 3c  	   lui        at,0x420c
        00105a5c 00 00 81 44  	   mtc1       at,f0
        00105a60 2d 18 40 00  	   move       v1,v0
        00105a64 c8 f8 a5 24  	   addiu      a1=>DAT_002ef8c8,a1,-0x738
                             LAB_00105a68                                    XREF[8]:     00102164(j), 00102db0(j), 
                                                                                          00103dcc(j), 001051fc(j), 
                                                                                          00105220(j), 00105244(j), 
                                                                                          00105268(j), 0010538c(j)  
        00105a68 ff ff 84 34  	   ori        a0,a0,0xffff
        00105a6c 00 00 64 ac  	   sw         a0,0x0(v1)
        00105a70 08 00 65 ac  	   sw         a1=>DAT_002ef8c8,0x8(v1)
        00105a74 0c 00 60 e4  	   swc1       f0,0xc(v1)
        00105a78 6a 04 00 10  	   beq        zero,zero,LAB_00106c24
        00105a7c 04 00 60 ac  	   _sw        zero,0x4(v1)
                             LAB_00105a80                                    XREF[1]:     002ecd60(*)  
        00105a80 3c 07 06 0c  	   jal        MemoryAllocate                                   void * MemoryAllocate(uint memor
        00105a84 18 00 04 24  	   _li        a0,0x18
        00105a88 b6 85 04 0c  	   jal        FUN_001216d8                                     undefined8 FUN_001216d8(undefine
        00105a8c 2d 20 40 00  	   _move      a0,v0
        00105a90 65 04 00 10  	   beq        zero,zero,LAB_00106c28
        00105a94 30 00 b0 df  	   _ld        s0,0x30(sp)
                             LAB_00105a98                                    XREF[1]:     002ece90(*)  
        00105a98 3c 07 06 0c  	   jal        MemoryAllocate                                   void * MemoryAllocate(uint memor
        00105a9c 0c 00 04 24  	   _li        a0,0xc
        00105aa0 ff 00 03 3c  	   lui        v1,0xff
        00105aa4 2f 00 04 3c  	   lui        a0,0x2f
        00105aa8 2d 28 40 00  	   move       a1,v0
        00105aac 57 04 00 10  	   beq        zero,zero,LAB_00106c0c
        00105ab0 48 fb 84 24  	   _addiu     a0,a0,-0x4b8
                             LAB_00105ab4                                    XREF[1]:     002ecd64(*)  
        00105ab4 3c 07 06 0c  	   jal        MemoryAllocate                                   void * MemoryAllocate(uint memor
        00105ab8 40 00 04 24  	   _li        a0,0x40
        00105abc 4c 84 04 0c  	   jal        FUN_00121130                                     undefined8 FUN_00121130(undefine
        00105ac0 2d 20 40 00  	   _move      a0,v0
        00105ac4 58 04 00 10  	   beq        zero,zero,LAB_00106c28
        00105ac8 30 00 b0 df  	   _ld        s0,0x30(sp)
                             LAB_00105acc                                    XREF[1]:     002ecde0(*)  
        00105acc 3c 07 06 0c  	   jal        MemoryAllocate                                   void * MemoryAllocate(uint memor
        00105ad0 0c 00 04 24  	   _li        a0,0xc
        00105ad4 ff 00 03 3c  	   lui        v1,0xff
        00105ad8 2f 00 04 3c  	   lui        a0,0x2f
        00105adc 2d 28 40 00  	   move       a1,v0
        00105ae0 4a 04 00 10  	   beq        zero,zero,LAB_00106c0c
        00105ae4 88 f1 84 24  	   _addiu     a0,a0,-0xe78
                             LAB_00105ae8                                    XREF[1]:     002ec7e8(*)  
        00105ae8 3c 07 06 0c  	   jal        MemoryAllocate                                   void * MemoryAllocate(uint memor
        00105aec 0c 00 04 24  	   _li        a0,0xc
        00105af0 ff 00 03 3c  	   lui        v1,0xff
        00105af4 30 00 04 3c  	   lui        a0,0x30
        00105af8 2d 28 40 00  	   move       a1,v0
        00105afc 43 04 00 10  	   beq        zero,zero,LAB_00106c0c
        00105b00 98 ec 84 24  	   _addiu     a0,a0,-0x1368
                             LAB_00105b04                                    XREF[1]:     002ec748(*)  
        00105b04 3c 07 06 0c  	   jal        MemoryAllocate                                   void * MemoryAllocate(uint memor
        00105b08 0c 00 04 24  	   _li        a0,0xc
        00105b0c ff 00 03 3c  	   lui        v1,0xff
        00105b10 30 00 04 3c  	   lui        a0,0x30
        00105b14 2d 28 40 00  	   move       a1,v0
        00105b18 3c 04 00 10  	   beq        zero,zero,LAB_00106c0c
        00105b1c 58 ed 84 24  	   _addiu     a0,a0,-0x12a8
                             LAB_00105b20                                    XREF[1]:     002ece2c(*)  
        00105b20 3c 07 06 0c  	   jal        MemoryAllocate                                   void * MemoryAllocate(uint memor
        00105b24 14 00 04 24  	   _li        a0,0x14
        00105b28 2d 18 40 00  	   move       v1,v0
        00105b2c ff 00 05 3c  	   lui        a1,0xff
        00105b30 ff 00 02 24  	   li         v0,0xff
        00105b34 ff fe 06 24  	   li         a2,-0x101
        00105b38 0c 00 62 a0  	   sb         v0,0xc(v1)
        00105b3c ff ff a5 34  	   ori        a1,a1,0xffff
        00105b40 2f 00 02 3c  	   lui        v0,0x2f
        00105b44 00 00 65 ac  	   sw         a1,0x0(v1)
        00105b48 0c 00 64 8c  	   lw         a0,0xc(v1)
        00105b4c c8 ef 42 24  	   addiu      v0,v0,-0x1038
        00105b50 08 00 62 ac  	   sw         v0=>DAT_002eefc8,0x8(v1)
        00105b54 24 20 86 00  	   and        a0,a0,a2
        00105b58 2d 10 60 00  	   move       v0,v1
        00105b5c c6 01 00 10  	   beq        zero,zero,LAB_00106278
        00105b60 0c 00 64 ac  	   _sw        a0,0xc(v1)
                             LAB_00105b64                                    XREF[1]:     002ecde4(*)  
        00105b64 3c 07 06 0c  	   jal        MemoryAllocate                                   void * MemoryAllocate(uint memor
        00105b68 40 00 04 24  	   _li        a0,0x40
        00105b6c 2d 20 40 00  	   move       a0,v0
        00105b70 28 75 04 0c  	   jal        FUN_0011d4a0                                     undefined8 FUN_0011d4a0(undefine
        00105b74 2d 28 00 00  	   _move      a1,zero
        00105b78 2b 04 00 10  	   beq        zero,zero,LAB_00106c28
        00105b7c 30 00 b0 df  	   _ld        s0,0x30(sp)
                             LAB_00105b80                                    XREF[1]:     002ece30(*)  
        00105b80 3c 07 06 0c  	   jal        MemoryAllocate                                   void * MemoryAllocate(uint memor
        00105b84 10 00 04 24  	   _li        a0,0x10
        00105b88 ff 00 03 3c  	   lui        v1,0xff
        00105b8c 2f 00 04 3c  	   lui        a0,0x2f
        00105b90 2d 28 40 00  	   move       a1,v0
        00105b94 48 f0 84 24  	   addiu      a0,a0,-0xfb8
                             LAB_00105b98                                    XREF[3]:     00101fd4(j), 0010335c(j), 
                                                                                          00103978(j)  
        00105b98 ff ff 63 34  	   ori        v1,v1,0xffff
        00105b9c 08 00 a4 ac  	   sw         a0=>DAT_002ef048,0x8(a1)
        00105ba0 00 00 a3 ac  	   sw         v1,0x0(a1)
        00105ba4 04 00 a0 ac  	   sw         zero,0x4(a1)
        00105ba8 1e 04 00 10  	   beq        zero,zero,LAB_00106c24
        00105bac 0c 00 a0 a0  	   _sb        zero,0xc(a1)
                             LAB_00105bb0                                    XREF[1]:     002ece00(*)  
        00105bb0 3c 07 06 0c  	   jal        MemoryAllocate                                   void * MemoryAllocate(uint memor
        00105bb4 40 00 04 24  	   _li        a0,0x40
        00105bb8 2d 20 40 00  	   move       a0,v0
        00105bbc 28 75 04 0c  	   jal        FUN_0011d4a0                                     undefined8 FUN_0011d4a0(undefine
        00105bc0 01 00 05 24  	   _li        a1,0x1
        00105bc4 18 04 00 10  	   beq        zero,zero,LAB_00106c28
        00105bc8 30 00 b0 df  	   _ld        s0,0x30(sp)
                             LAB_00105bcc                                    XREF[1]:     002ec7ec(*)  
        00105bcc 3c 07 06 0c  	   jal        MemoryAllocate                                   void * MemoryAllocate(uint memor
        00105bd0 0c 00 04 24  	   _li        a0,0xc
        00105bd4 ff 00 03 3c  	   lui        v1,0xff
        00105bd8 30 00 04 3c  	   lui        a0,0x30
        00105bdc 2d 28 40 00  	   move       a1,v0
        00105be0 0a 04 00 10  	   beq        zero,zero,LAB_00106c0c
        00105be4 58 ec 84 24  	   _addiu     a0,a0,-0x13a8
                             LAB_00105be8                                    XREF[1]:     002ece04(*)  
        00105be8 3c 07 06 0c  	   jal        MemoryAllocate                                   void * MemoryAllocate(uint memor
        00105bec 40 00 04 24  	   _li        a0,0x40
        00105bf0 2d 20 40 00  	   move       a0,v0
        00105bf4 28 75 04 0c  	   jal        FUN_0011d4a0                                     undefined8 FUN_0011d4a0(undefine
        00105bf8 02 00 05 24  	   _li        a1,0x2
        00105bfc 0a 04 00 10  	   beq        zero,zero,LAB_00106c28
        00105c00 30 00 b0 df  	   _ld        s0,0x30(sp)
                             LAB_00105c04                                    XREF[1]:     002ec7d4(*)  
        00105c04 3c 07 06 0c  	   jal        MemoryAllocate                                   void * MemoryAllocate(uint memor
        00105c08 14 00 04 24  	   _li        a0,0x14
        00105c0c 2d 18 40 00  	   move       v1,v0
        00105c10 ff 00 05 3c  	   lui        a1,0xff
        00105c14 ff 00 02 24  	   li         v0,0xff
        00105c18 30 00 06 3c  	   lui        a2,0x30
        00105c1c 0e 00 62 a0  	   sb         v0,0xe(v1)
        00105c20 00 0f 07 3c  	   lui        a3,0xf00
        00105c24 0c 00 62 a0  	   sb         v0,0xc(v1)
        00105c28 d8 ec c6 24  	   addiu      a2=>DAT_002fecd8,a2,-0x1328
        00105c2c 0d 00 62 a0  	   sb         v0,0xd(v1)
        00105c30 ff ff a5 34  	   ori        a1,a1,0xffff
        00105c34 2d 10 60 00  	   move       v0,v1
        00105c38 00 00 65 ac  	   sw         a1,0x0(v1)
        00105c3c 0c 00 64 8c  	   lw         a0,0xc(v1)
        00105c40 08 00 66 ac  	   sw         a2=>DAT_002fecd8,0x8(v1)
        00105c44 25 20 87 00  	   or         a0,a0,a3
        00105c48 04 00 60 ac  	   sw         zero,0x4(v1)
        00105c4c 0c 00 64 ac  	   sw         a0,0xc(v1)
        00105c50 f4 03 00 10  	   beq        zero,zero,LAB_00106c24
        00105c54 10 00 60 ac  	   _sw        zero,0x10(v1)
                             LAB_00105c58                                    XREF[1]:     002ec860(*)  
        00105c58 3c 07 06 0c  	   jal        MemoryAllocate                                   void * MemoryAllocate(uint memor
        00105c5c 2c 00 04 24  	   _li        a0,0x2c
        00105c60 2d 20 40 00  	   move       a0,v0
        00105c64 fd ff 05 24  	   li         a1,-0x3
        00105c68 28 00 83 8c  	   lw         v1,0x28(a0)
        00105c6c fe ff 02 24  	   li         v0,-0x2
        00105c70 fb ff 06 24  	   li         a2,-0x5
        00105c74 f7 ff 07 24  	   li         a3,-0x9
        00105c78 24 18 62 00  	   and        v1,v1,v0
        00105c7c ef ff 08 24  	   li         t0,-0x11
        00105c80 24 18 65 00  	   and        v1,v1,a1
        00105c84 ff 00 02 3c  	   lui        v0,0xff
        00105c88 24 18 66 00  	   and        v1,v1,a2
        00105c8c ff ff 42 34  	   ori        v0,v0,0xffff
        00105c90 24 18 67 00  	   and        v1,v1,a3
        00105c94 30 00 05 3c  	   lui        a1,0x30
        00105c98 df ff 06 24  	   li         a2,-0x21
        00105c9c 24 18 68 00  	   and        v1,v1,t0
        00105ca0 18 ec a5 24  	   addiu      a1=>DAT_002fec18,a1,-0x13e8
        00105ca4 24 18 66 00  	   and        v1,v1,a2
        00105ca8 00 00 82 ac  	   sw         v0,0x0(a0)
        00105cac 2d 10 80 00  	   move       v0,a0
        00105cb0 08 00 85 ac  	   sw         a1=>DAT_002fec18,0x8(a0)
        00105cb4 28 00 83 ac  	   sw         v1,0x28(a0)
        00105cb8 04 00 80 ac  	   sw         zero,0x4(a0)
        00105cbc 0c 00 80 ac  	   sw         zero,0xc(a0)
        00105cc0 10 00 80 ac  	   sw         zero,0x10(a0)
        00105cc4 14 00 80 ac  	   sw         zero,0x14(a0)
        00105cc8 18 00 80 ac  	   sw         zero,0x18(a0)
        00105ccc 1c 00 80 ac  	   sw         zero,0x1c(a0)
        00105cd0 20 00 80 ac  	   sw         zero,0x20(a0)
        00105cd4 d3 03 00 10  	   beq        zero,zero,LAB_00106c24
        00105cd8 24 00 80 ac  	   _sw        zero,0x24(a0)
                             LAB_00105cdc                                    XREF[1]:     002ec864(*)  
        00105cdc 3c 07 06 0c  	   jal        MemoryAllocate                                   void * MemoryAllocate(uint memor
        00105ce0 14 00 04 24  	   _li        a0,0x14
        00105ce4 ff 00 03 3c  	   lui        v1,0xff
        00105ce8 30 00 04 3c  	   lui        a0,0x30
        00105cec 2d 28 40 00  	   move       a1,v0
        00105cf0 d8 eb 84 24  	   addiu      a0,a0,-0x1428
        00105cf4 ff ff 63 34  	   ori        v1,v1,0xffff
        00105cf8 08 00 a4 ac  	   sw         a0=>DAT_002febd8,0x8(a1)
        00105cfc 00 00 a3 ac  	   sw         v1,0x0(a1)
        00105d00 04 00 a0 ac  	   sw         zero,0x4(a1)
        00105d04 0c 00 a0 ac  	   sw         zero,0xc(a1)
        00105d08 c6 03 00 10  	   beq        zero,zero,LAB_00106c24
        00105d0c 10 00 a0 ac  	   _sw        zero,0x10(a1)
                             LAB_00105d10                                    XREF[3]:     002ec6a0(*), 002ec6a4(*), 
                                                                                          002ece54(*)  
        00105d10 3c 07 06 0c  	   jal        MemoryAllocate                                   void * MemoryAllocate(uint memor
        00105d14 10 00 04 24  	   _li        a0,0x10
        00105d18 ff 00 03 3c  	   lui        v1,0xff
        00105d1c 2f 00 04 3c  	   lui        a0,0x2f
        00105d20 2d 28 40 00  	   move       a1,v0
        00105d24 39 03 00 10  	   beq        zero,zero,LAB_00106a0c
        00105d28 08 fc 84 24  	   _addiu     a0,a0,-0x3f8
                             LAB_00105d2c                                    XREF[1]:     002ecd70(*)  
        00105d2c 3c 07 06 0c  	   jal        MemoryAllocate                                   void * MemoryAllocate(uint memor
        00105d30 10 00 04 24  	   _li        a0,0x10
        00105d34 96 7d 04 0c  	   jal        FUN_0011f658                                     undefined8 FUN_0011f658(undefine
        00105d38 2d 20 40 00  	   _move      a0,v0
        00105d3c ba 03 00 10  	   beq        zero,zero,LAB_00106c28
        00105d40 30 00 b0 df  	   _ld        s0,0x30(sp)
                             LAB_00105d44                                    XREF[1]:     002ecd74(*)  
        00105d44 3c 07 06 0c  	   jal        MemoryAllocate                                   void * MemoryAllocate(uint memor
        00105d48 10 00 04 24  	   _li        a0,0x10
        00105d4c e0 7d 04 0c  	   jal        FUN_0011f780                                     undefined8 FUN_0011f780(undefine
        00105d50 2d 20 40 00  	   _move      a0,v0
        00105d54 b4 03 00 10  	   beq        zero,zero,LAB_00106c28
        00105d58 30 00 b0 df  	   _ld        s0,0x30(sp)
                             LAB_00105d5c                                    XREF[1]:     002ece3c(*)  
        00105d5c 3c 07 06 0c  	   jal        MemoryAllocate                                   void * MemoryAllocate(uint memor
        00105d60 10 00 04 24  	   _li        a0,0x10
        00105d64 2d 18 40 00  	   move       v1,v0
        00105d68 01 00 07 3c  	   lui        a3,0x1
        00105d6c 0c 00 60 a4  	   sh         zero,0xc(v1)
        00105d70 2f 00 02 3c  	   lui        v0,0x2f
        00105d74 c8 ee 42 24  	   addiu      v0,v0,-0x1138
        00105d78 ff 00 05 3c  	   lui        a1,0xff
        00105d7c 0c 00 64 8c  	   lw         a0,0xc(v1)
        00105d80 02 00 06 3c  	   lui        a2,0x2
        00105d84 ff ff a5 34  	   ori        a1,a1,0xffff
        00105d88 08 00 62 ac  	   sw         v0=>DAT_002eeec8,0x8(v1)
        00105d8c 25 20 87 00  	   or         a0,a0,a3
        00105d90 00 00 65 ac  	   sw         a1,0x0(v1)
        00105d94 25 20 86 00  	   or         a0,a0,a2
        00105d98 8d 02 00 10  	   beq        zero,zero,LAB_001067d0
        00105d9c 2d 10 60 00  	   _move      v0,v1
                             LAB_00105da0                                    XREF[1]:     002ecd78(*)  
        00105da0 3c 07 06 0c  	   jal        MemoryAllocate                                   void * MemoryAllocate(uint memor
        00105da4 20 00 04 24  	   _li        a0,0x20
        00105da8 dc 7c 04 0c  	   jal        FUN_0011f370                                     undefined8 FUN_0011f370(undefine
        00105dac 2d 20 40 00  	   _move      a0,v0
        00105db0 9d 03 00 10  	   beq        zero,zero,LAB_00106c28
        00105db4 30 00 b0 df  	   _ld        s0,0x30(sp)
                             LAB_00105db8                                    XREF[1]:     002ecd80(*)  
        00105db8 3c 07 06 0c  	   jal        MemoryAllocate                                   void * MemoryAllocate(uint memor
        00105dbc 10 00 04 24  	   _li        a0,0x10
        00105dc0 ff 00 03 3c  	   lui        v1,0xff
        00105dc4 2f 00 04 3c  	   lui        a0,0x2f
        00105dc8 2d 28 40 00  	   move       a1,v0
        00105dcc 0f 03 00 10  	   beq        zero,zero,LAB_00106a0c
        00105dd0 30 1e 84 24  	   _addiu     a0,a0,0x1e30
                             LAB_00105dd4                                    XREF[1]:     002ece40(*)  
        00105dd4 3c 07 06 0c  	   jal        MemoryAllocate                                   void * MemoryAllocate(uint memor
        00105dd8 20 00 04 24  	   _li        a0,0x20
        00105ddc ff 00 03 3c  	   lui        v1,0xff
        00105de0 2f 00 04 3c  	   lui        a0,0x2f
        00105de4 2d 28 40 00  	   move       a1,v0
        00105de8 88 03 00 10  	   beq        zero,zero,LAB_00106c0c
        00105dec f0 1d 84 24  	   _addiu     a0,a0,0x1df0
                             LAB_00105df0                                    XREF[1]:     002ecd90(*)  
        00105df0 3c 07 06 0c  	   jal        MemoryAllocate                                   void * MemoryAllocate(uint memor
        00105df4 10 00 04 24  	   _li        a0,0x10
        00105df8 ff 00 03 3c  	   lui        v1,0xff
        00105dfc 2f 00 04 3c  	   lui        a0,0x2f
        00105e00 2d 28 40 00  	   move       a1,v0
        00105e04 48 ff 84 24  	   addiu      a0,a0,-0xb8
                             LAB_00105e08                                    XREF[2]:     00104fc0(j), 0010586c(j)  
        00105e08 ff ff 63 34  	   ori        v1,v1,0xffff
        00105e0c 08 00 a4 ac  	   sw         a0=>DAT_002eff48,0x8(a1)
        00105e10 00 00 a3 ac  	   sw         v1,0x0(a1)
        00105e14 04 00 a0 ac  	   sw         zero,0x4(a1)
        00105e18 0c 00 a0 a4  	   sh         zero,0xc(a1)
        00105e1c 81 03 00 10  	   beq        zero,zero,LAB_00106c24
        00105e20 0e 00 a0 a4  	   _sh        zero,0xe(a1)
                             LAB_00105e24                                    XREF[1]:     002ecdc8(*)  
        00105e24 3c 07 06 0c  	   jal        MemoryAllocate                                   void * MemoryAllocate(uint memor
        00105e28 10 00 04 24  	   _li        a0,0x10
        00105e2c ff 00 03 3c  	   lui        v1,0xff
        00105e30 2f 00 04 3c  	   lui        a0,0x2f
        00105e34 2d 28 40 00  	   move       a1,v0
        00105e38 74 03 00 10  	   beq        zero,zero,LAB_00106c0c
        00105e3c 88 ff 84 24  	   _addiu     a0,a0,-0x78
                             LAB_00105e40                                    XREF[1]:     002ecdec(*)  
        00105e40 3c 07 06 0c  	   jal        MemoryAllocate                                   void * MemoryAllocate(uint memor
        00105e44 18 00 04 24  	   _li        a0,0x18
        00105e48 2d 18 40 00  	   move       v1,v0
        00105e4c fe ff 07 24  	   li         a3,-0x2
        00105e50 0c 00 64 8c  	   lw         a0,0xc(v1)
        00105e54 ff 00 02 3c  	   lui        v0,0xff
        00105e58 ff ff 42 34  	   ori        v0,v0,0xffff
        00105e5c 2f 00 05 3c  	   lui        a1,0x2f
        00105e60 fd ff 06 24  	   li         a2,-0x3
        00105e64 24 20 87 00  	   and        a0,a0,a3
        00105e68 48 ec a5 24  	   addiu      a1=>DAT_002eec48,a1,-0x13b8
        00105e6c 24 20 86 00  	   and        a0,a0,a2
        00105e70 00 00 62 ac  	   sw         v0,0x0(v1)
        00105e74 2d 10 60 00  	   move       v0,v1
        00105e78 08 00 65 ac  	   sw         a1=>DAT_002eec48,0x8(v1)
        00105e7c 0c 00 64 ac  	   sw         a0,0xc(v1)
                             LAB_00105e80                                    XREF[3]:     001045d4(j), 00104604(j), 
                                                                                          001050bc(j)  
        00105e80 04 00 60 ac  	   sw         zero,0x4(v1)
        00105e84 67 03 00 10  	   beq        zero,zero,LAB_00106c24
        00105e88 10 00 60 ac  	   _sw        zero,0x10(v1)
                             LAB_00105e8c                                    XREF[1]:     002ecee4(*)  
        00105e8c 3c 07 06 0c  	   jal        MemoryAllocate                                   void * MemoryAllocate(uint memor
        00105e90 0c 00 04 24  	   _li        a0,0xc
        00105e94 ff 00 03 3c  	   lui        v1,0xff
        00105e98 2f 00 04 3c  	   lui        a0,0x2f
        00105e9c 2d 28 40 00  	   move       a1,v0
        00105ea0 5a 03 00 10  	   beq        zero,zero,LAB_00106c0c
        00105ea4 08 e9 84 24  	   _addiu     a0,a0,-0x16f8
                             LAB_00105ea8                                    XREF[1]:     002ecdf0(*)  
        00105ea8 3c 07 06 0c  	   jal        MemoryAllocate                                   void * MemoryAllocate(uint memor
        00105eac 0c 00 04 24  	   _li        a0,0xc
        00105eb0 ff 00 03 3c  	   lui        v1,0xff
        00105eb4 2f 00 04 3c  	   lui        a0,0x2f
        00105eb8 2d 28 40 00  	   move       a1,v0
        00105ebc 53 03 00 10  	   beq        zero,zero,LAB_00106c0c
        00105ec0 08 ec 84 24  	   _addiu     a0,a0,-0x13f8
                             LAB_00105ec4                                    XREF[1]:     002ece4c(*)  
        00105ec4 3c 07 06 0c  	   jal        MemoryAllocate                                   void * MemoryAllocate(uint memor
        00105ec8 54 00 04 24  	   _li        a0,0x54
        00105ecc 80 3f 01 3c  	   lui        at,0x3f80
        00105ed0 00 00 81 44  	   mtc1       at,f0
        00105ed4 ff 00 05 3c  	   lui        a1,0xff
        00105ed8 2f 00 04 3c  	   lui        a0,0x2f
        00105edc a0 40 01 3c  	   lui        at,0x40a0
        00105ee0 00 08 81 44  	   mtc1       at,f1
        00105ee4 2d 18 40 00  	   move       v1,v0
        00105ee8 c8 eb 84 24  	   addiu      a0,a0,-0x1438
        00105eec ff ff a5 34  	   ori        a1,a1,0xffff
        00105ef0 08 00 64 ac  	   sw         a0=>DAT_002eebc8,0x8(v1)
        00105ef4 00 00 65 ac  	   sw         a1,0x0(v1)
        00105ef8 1c 00 61 e4  	   swc1       f1,0x1c(v1)
        00105efc 40 00 60 e4  	   swc1       f0,0x40(v1)
        00105f00 04 00 60 ac  	   sw         zero,0x4(v1)
        00105f04 0c 00 60 ac  	   sw         zero,0xc(v1)
        00105f08 10 00 60 ac  	   sw         zero,0x10(v1)
        00105f0c 14 00 60 ac  	   sw         zero,0x14(v1)
        00105f10 18 00 60 e4  	   swc1       f0,0x18(v1)
        00105f14 20 00 60 ac  	   sw         zero,0x20(v1)
        00105f18 24 00 60 e4  	   swc1       f0,0x24(v1)
        00105f1c 28 00 60 ac  	   sw         zero,0x28(v1)
        00105f20 2c 00 60 ac  	   sw         zero,0x2c(v1)
        00105f24 30 00 60 e4  	   swc1       f0,0x30(v1)
        00105f28 34 00 60 e4  	   swc1       f0,0x34(v1)
        00105f2c 38 00 60 e4  	   swc1       f0,0x38(v1)
        00105f30 3c 00 60 e4  	   swc1       f0,0x3c(v1)
        00105f34 44 00 60 ac  	   sw         zero,0x44(v1)
        00105f38 3a 03 00 10  	   beq        zero,zero,LAB_00106c24
        00105f3c 48 00 60 ac  	   _sw        zero,0x48(v1)
                             LAB_00105f40                                    XREF[1]:     002ece60(*)  
        00105f40 3c 07 06 0c  	   jal        MemoryAllocate                                   void * MemoryAllocate(uint memor
        00105f44 0c 00 04 24  	   _li        a0,0xc
        00105f48 ff 00 03 3c  	   lui        v1,0xff
        00105f4c 2f 00 04 3c  	   lui        a0,0x2f
        00105f50 2d 28 40 00  	   move       a1,v0
        00105f54 2d 03 00 10  	   beq        zero,zero,LAB_00106c0c
        00105f58 48 eb 84 24  	   _addiu     a0,a0,-0x14b8
                             LAB_00105f5c                                    XREF[1]:     002ece6c(*)  
        00105f5c 3c 07 06 0c  	   jal        MemoryAllocate                                   void * MemoryAllocate(uint memor
        00105f60 3c 00 04 24  	   _li        a0,0x3c
        00105f64 2d 28 40 00  	   move       a1,v0
        00105f68 c7 ff 04 24  	   li         a0,-0x39
        00105f6c 0c 00 a3 8c  	   lw         v1,0xc(a1)
        00105f70 f8 ff 02 24  	   li         v0,-0x8
        00105f74 3f fe 06 24  	   li         a2,-0x1c1
        00105f78 ff f1 08 24  	   li         t0,-0xe01
        00105f7c 24 18 62 00  	   and        v1,v1,v0
        00105f80 ff 8f 09 24  	   li         t1,-0x7001
        00105f84 24 18 64 00  	   and        v1,v1,a0
        00105f88 ff ff 07 3c  	   lui        a3,0xffff
        00105f8c 30 00 63 34  	   ori        v1,v1,0x30
        00105f90 ff 7f e7 34  	   ori        a3,a3,0x7fff
        00105f94 24 18 66 00  	   and        v1,v1,a2
        00105f98 fe ff 02 3c  	   lui        v0,0xfffe
        00105f9c 24 18 68 00  	   and        v1,v1,t0
        00105fa0 ff ff 42 34  	   ori        v0,v0,0xffff
        00105fa4 24 18 69 00  	   and        v1,v1,t1
        00105fa8 fd ff 06 3c  	   lui        a2,0xfffd
        00105fac 00 30 63 34  	   ori        v1,v1,0x3000
        00105fb0 ff ff c6 34  	   ori        a2,a2,0xffff
        00105fb4 24 18 67 00  	   and        v1,v1,a3
        00105fb8 e3 ff 04 3c  	   lui        a0,0xffe3
        00105fbc 24 18 62 00  	   and        v1,v1,v0
        00105fc0 ff ff 84 34  	   ori        a0,a0,0xffff
        00105fc4 24 18 66 00  	   and        v1,v1,a2
        00105fc8 df ff 02 3c  	   lui        v0,0xffdf
        00105fcc 24 18 64 00  	   and        v1,v1,a0
        00105fd0 ff ff 42 34  	   ori        v0,v0,0xffff
        00105fd4 bf ff 04 3c  	   lui        a0,0xffbf
        00105fd8 24 18 62 00  	   and        v1,v1,v0
        00105fdc ff ff 84 34  	   ori        a0,a0,0xffff
        00105fe0 7f ff 02 3c  	   lui        v0,0xff7f
        00105fe4 24 18 64 00  	   and        v1,v1,a0
        00105fe8 ff ff 42 34  	   ori        v0,v0,0xffff
        00105fec ff 00 06 3c  	   lui        a2,0xff
        00105ff0 2f 00 04 3c  	   lui        a0,0x2f
        00105ff4 24 18 62 00  	   and        v1,v1,v0
        00105ff8 88 ea 84 24  	   addiu      a0,a0,-0x1578
        00105ffc ff ff c6 34  	   ori        a2,a2,0xffff
        00106000 08 00 a4 ac  	   sw         a0=>DAT_002eea88,0x8(a1)
        00106004 00 00 a6 ac  	   sw         a2,0x0(a1)
        00106008 2d 10 a0 00  	   move       v0,a1
        0010600c 0c 00 a3 ac  	   sw         v1,0xc(a1)
        00106010 04 00 a0 ac  	   sw         zero,0x4(a1)
        00106014 10 00 a0 ac  	   sw         zero,0x10(a1)
        00106018 14 00 a0 ac  	   sw         zero,0x14(a1)
        0010601c 18 00 a0 ac  	   sw         zero,0x18(a1)
        00106020 1c 00 a0 ac  	   sw         zero,0x1c(a1)
        00106024 20 00 a0 ac  	   sw         zero,0x20(a1)
        00106028 24 00 a0 ac  	   sw         zero,0x24(a1)
        0010602c 28 00 a0 ac  	   sw         zero,0x28(a1)
        00106030 2c 00 a0 ac  	   sw         zero,0x2c(a1)
        00106034 30 00 a0 ac  	   sw         zero,0x30(a1)
        00106038 34 00 a0 ac  	   sw         zero,0x34(a1)
        0010603c f9 02 00 10  	   beq        zero,zero,LAB_00106c24
        00106040 38 00 a0 ac  	   _sw        zero,0x38(a1)
                             LAB_00106044                                    XREF[1]:     002ece70(*)  
        00106044 3c 07 06 0c  	   jal        MemoryAllocate                                   void * MemoryAllocate(uint memor
        00106048 10 00 04 24  	   _li        a0,0x10
        0010604c 2d 18 40 00  	   move       v1,v0
        00106050 2f 00 04 3c  	   lui        a0,0x2f
        00106054 0c 00 66 8c  	   lw         a2,0xc(v1)
        00106058 ff 00 02 3c  	   lui        v0,0xff
        0010605c ff ff 42 34  	   ori        v0,v0,0xffff
        00106060 f8 ff 05 24  	   li         a1,-0x8
        00106064 48 ea 84 24  	   addiu      a0,a0,-0x15b8
        00106068 24 30 c5 00  	   and        a2,a2,a1
        0010606c 00 00 62 ac  	   sw         v0,0x0(v1)
        00106070 2d 10 60 00  	   move       v0,v1
        00106074 ee 00 00 10  	   beq        zero,zero,LAB_00106430
        00106078 08 00 64 ac  	   _sw        a0=>DAT_002eea48,0x8(v1)
                             LAB_0010607c                                    XREF[1]:     002ece74(*)  
        0010607c 3c 07 06 0c  	   jal        MemoryAllocate                                   void * MemoryAllocate(uint memor
        00106080 10 00 04 24  	   _li        a0,0x10
        00106084 2d 28 40 00  	   move       a1,v0
        00106088 f8 ff 06 24  	   li         a2,-0x8
        0010608c 0c 00 a4 8c  	   lw         a0,0xc(a1)
        00106090 ff 00 02 3c  	   lui        v0,0xff
        00106094 ff ff 42 34  	   ori        v0,v0,0xffff
        00106098 2f 00 03 3c  	   lui        v1,0x2f
        0010609c 24 20 86 00  	   and        a0,a0,a2
        001060a0 48 ea 63 24  	   addiu      v1,v1,-0x15b8
                             LAB_001060a4                                    XREF[3]:     00103820(j), 0010387c(j), 
                                                                                          0010468c(j)  
        001060a4 01 00 84 34  	   ori        a0,a0,0x1
                             LAB_001060a8                                    XREF[4]:     00103850(j), 001038ac(j), 
                                                                                          00104948(j), 00104bac(j)  
        001060a8 00 00 a2 ac  	   sw         v0,0x0(a1)
        001060ac 08 00 a3 ac  	   sw         v1=>DAT_002eea48,0x8(a1)
        001060b0 2d 10 a0 00  	   move       v0,a1
        001060b4 0c 00 a4 ac  	   sw         a0,0xc(a1)
        001060b8 da 02 00 10  	   beq        zero,zero,LAB_00106c24
        001060bc 04 00 a0 ac  	   _sw        zero,0x4(a1)
                             LAB_001060c0                                    XREF[1]:     002ece78(*)  
        001060c0 3c 07 06 0c  	   jal        MemoryAllocate                                   void * MemoryAllocate(uint memor
        001060c4 14 00 04 24  	   _li        a0,0x14
        001060c8 2d 20 40 00  	   move       a0,v0
        001060cc f8 ff 06 24  	   li         a2,-0x8
        001060d0 0c 00 83 8c  	   lw         v1,0xc(a0)
        001060d4 f7 ff 07 24  	   li         a3,-0x9
        001060d8 ef ff 08 24  	   li         t0,-0x11
        001060dc ff 00 02 3c  	   lui        v0,0xff
        001060e0 24 18 66 00  	   and        v1,v1,a2
        001060e4 ff ff 42 34  	   ori        v0,v0,0xffff
        001060e8 24 18 67 00  	   and        v1,v1,a3
        001060ec 2f 00 05 3c  	   lui        a1,0x2f
        001060f0 1f ff 06 24  	   li         a2,-0xe1
        001060f4 24 18 68 00  	   and        v1,v1,t0
        001060f8 08 ea a5 24  	   addiu      a1=>DAT_002eea08,a1,-0x15f8
        001060fc 24 18 66 00  	   and        v1,v1,a2
        00106100 00 00 82 ac  	   sw         v0,0x0(a0)
        00106104 2d 10 80 00  	   move       v0,a0
        00106108 08 00 85 ac  	   sw         a1=>DAT_002eea08,0x8(a0)
        0010610c 0c 00 83 ac  	   sw         v1,0xc(a0)
        00106110 04 00 80 ac  	   sw         zero,0x4(a0)
        00106114 c3 02 00 10  	   beq        zero,zero,LAB_00106c24
        00106118 10 00 80 ac  	   _sw        zero,0x10(a0)
                             LAB_0010611c                                    XREF[1]:     002ece7c(*)  
        0010611c 3c 07 06 0c  	   jal        MemoryAllocate                                   void * MemoryAllocate(uint memor
        00106120 18 00 04 24  	   _li        a0,0x18
        00106124 2d 18 40 00  	   move       v1,v0
        00106128 fe ff 07 24  	   li         a3,-0x2
        0010612c 10 00 64 8c  	   lw         a0,0x10(v1)
        00106130 ff 00 02 3c  	   lui        v0,0xff
        00106134 ff ff 42 34  	   ori        v0,v0,0xffff
        00106138 2f 00 05 3c  	   lui        a1,0x2f
        0010613c 24 20 87 00  	   and        a0,a0,a3
        00106140 ff 00 06 24  	   li         a2,0xff
        00106144 c8 e9 a5 24  	   addiu      a1=>DAT_002ee9c8,a1,-0x1638
        00106148 02 00 84 34  	   ori        a0,a0,0x2
        0010614c 00 00 62 ac  	   sw         v0,0x0(v1)
        00106150 2d 10 60 00  	   move       v0,v1
        00106154 08 00 65 ac  	   sw         a1=>DAT_002ee9c8,0x8(v1)
        00106158 10 00 64 ac  	   sw         a0,0x10(v1)
        0010615c 15 00 66 a0  	   sb         a2,0x15(v1)
        00106160 04 00 60 ac  	   sw         zero,0x4(v1)
        00106164 0c 00 66 a0  	   sb         a2,0xc(v1)
        00106168 0d 00 66 a0  	   sb         a2,0xd(v1)
        0010616c 0e 00 66 a0  	   sb         a2,0xe(v1)
        00106170 0f 00 66 a0  	   sb         a2,0xf(v1)
        00106174 ab 02 00 10  	   beq        zero,zero,LAB_00106c24
        00106178 14 00 66 a0  	   _sb        a2,0x14(v1)
                             LAB_0010617c                                    XREF[1]:     002ecea8(*)  
        0010617c 3c 07 06 0c  	   jal        MemoryAllocate                                   void * MemoryAllocate(uint memor
        00106180 0c 00 04 24  	   _li        a0,0xc
        00106184 ff 00 03 3c  	   lui        v1,0xff
        00106188 2f 00 04 3c  	   lui        a0,0x2f
        0010618c 2d 28 40 00  	   move       a1,v0
        00106190 9e 02 00 10  	   beq        zero,zero,LAB_00106c0c
        00106194 08 eb 84 24  	   _addiu     a0,a0,-0x14f8
                             LAB_00106198                                    XREF[1]:     002eceac(*)  
        00106198 3c 07 06 0c  	   jal        MemoryAllocate                                   void * MemoryAllocate(uint memor
        0010619c 0c 00 04 24  	   _li        a0,0xc
        001061a0 ff 00 03 3c  	   lui        v1,0xff
        001061a4 2f 00 04 3c  	   lui        a0,0x2f
        001061a8 2d 28 40 00  	   move       a1,v0
        001061ac 97 02 00 10  	   beq        zero,zero,LAB_00106c0c
        001061b0 c8 ea 84 24  	   _addiu     a0,a0,-0x1538
                             LAB_001061b4                                    XREF[1]:     002eceb4(*)  
        001061b4 3c 07 06 0c  	   jal        MemoryAllocate                                   void * MemoryAllocate(uint memor
        001061b8 0c 00 04 24  	   _li        a0,0xc
        001061bc ff 00 03 3c  	   lui        v1,0xff
        001061c0 2f 00 04 3c  	   lui        a0,0x2f
        001061c4 2d 28 40 00  	   move       a1,v0
        001061c8 90 02 00 10  	   beq        zero,zero,LAB_00106c0c
        001061cc 88 e9 84 24  	   _addiu     a0,a0,-0x1678
                             LAB_001061d0                                    XREF[1]:     002eceb8(*)  
        001061d0 3c 07 06 0c  	   jal        MemoryAllocate                                   void * MemoryAllocate(uint memor
        001061d4 0c 00 04 24  	   _li        a0,0xc
        001061d8 ff 00 03 3c  	   lui        v1,0xff
        001061dc 2f 00 04 3c  	   lui        a0,0x2f
        001061e0 2d 28 40 00  	   move       a1,v0
        001061e4 89 02 00 10  	   beq        zero,zero,LAB_00106c0c
        001061e8 48 e9 84 24  	   _addiu     a0,a0,-0x16b8
                             LAB_001061ec                                    XREF[1]:     002eceec(*)  
        001061ec 3c 07 06 0c  	   jal        MemoryAllocate                                   void * MemoryAllocate(uint memor
        001061f0 0c 00 04 24  	   _li        a0,0xc
        001061f4 ff 00 03 3c  	   lui        v1,0xff
        001061f8 2f 00 04 3c  	   lui        a0,0x2f
        001061fc 2d 28 40 00  	   move       a1,v0
        00106200 82 02 00 10  	   beq        zero,zero,LAB_00106c0c
        00106204 c8 e8 84 24  	   _addiu     a0,a0,-0x1738
                             LAB_00106208                                    XREF[1]:     002ecef8(*)  
        00106208 3c 07 06 0c  	   jal        MemoryAllocate                                   void * MemoryAllocate(uint memor
        0010620c 0c 00 04 24  	   _li        a0,0xc
        00106210 ff 00 03 3c  	   lui        v1,0xff
        00106214 2f 00 04 3c  	   lui        a0,0x2f
        00106218 2d 28 40 00  	   move       a1,v0
        0010621c 7b 02 00 10  	   beq        zero,zero,LAB_00106c0c
        00106220 88 e8 84 24  	   _addiu     a0,a0,-0x1778
                             LAB_00106224                                    XREF[1]:     002ecefc(*)  
        00106224 3c 07 06 0c  	   jal        MemoryAllocate                                   void * MemoryAllocate(uint memor
        00106228 0c 00 04 24  	   _li        a0,0xc
        0010622c ff 00 03 3c  	   lui        v1,0xff
        00106230 2f 00 04 3c  	   lui        a0,0x2f
        00106234 2d 28 40 00  	   move       a1,v0
        00106238 74 02 00 10  	   beq        zero,zero,LAB_00106c0c
        0010623c 48 e8 84 24  	   _addiu     a0,a0,-0x17b8
                             LAB_00106240                                    XREF[1]:     002ecf00(*)  
        00106240 3c 07 06 0c  	   jal        MemoryAllocate                                   void * MemoryAllocate(uint memor
        00106244 14 00 04 24  	   _li        a0,0x14
        00106248 2d 18 40 00  	   move       v1,v0
        0010624c 2f 00 04 3c  	   lui        a0,0x2f
        00106250 0c 00 66 8c  	   lw         a2,0xc(v1)
        00106254 ff 00 02 3c  	   lui        v0,0xff
        00106258 ff ff 42 34  	   ori        v0,v0,0xffff
        0010625c f8 ff 05 24  	   li         a1,-0x8
        00106260 08 e8 84 24  	   addiu      a0,a0,-0x17f8
        00106264 24 30 c5 00  	   and        a2,a2,a1
        00106268 00 00 62 ac  	   sw         v0,0x0(v1)
        0010626c 2d 10 60 00  	   move       v0,v1
        00106270 08 00 64 ac  	   sw         a0=>DAT_002ee808,0x8(v1)
        00106274 0c 00 66 ac  	   sw         a2,0xc(v1)
                             LAB_00106278                                    XREF[2]:     0010265c(j), 00105b5c(j)  
        00106278 04 00 60 ac  	   sw         zero,0x4(v1)
        0010627c 69 02 00 10  	   beq        zero,zero,LAB_00106c24
        00106280 10 00 60 ac  	   _sw        zero,0x10(v1)
                             LAB_00106284                                    XREF[1]:     002ecf04(*)  
        00106284 3c 07 06 0c  	   jal        MemoryAllocate                                   void * MemoryAllocate(uint memor
        00106288 18 00 04 24  	   _li        a0,0x18
        0010628c 2d 18 40 00  	   move       v1,v0
        00106290 2f 00 04 3c  	   lui        a0,0x2f
        00106294 0c 00 66 8c  	   lw         a2,0xc(v1)
        00106298 ff 00 02 3c  	   lui        v0,0xff
        0010629c ff ff 42 34  	   ori        v0,v0,0xffff
        001062a0 f8 ff 05 24  	   li         a1,-0x8
        001062a4 c8 e7 84 24  	   addiu      a0,a0,-0x1838
        001062a8 24 30 c5 00  	   and        a2,a2,a1
        001062ac 00 00 62 ac  	   sw         v0,0x0(v1)
        001062b0 2d 10 60 00  	   move       v0,v1
        001062b4 08 00 64 ac  	   sw         a0=>DAT_002ee7c8,0x8(v1)
        001062b8 0c 00 66 ac  	   sw         a2,0xc(v1)
        001062bc 04 00 60 ac  	   sw         zero,0x4(v1)
        001062c0 10 00 60 ac  	   sw         zero,0x10(v1)
        001062c4 57 02 00 10  	   beq        zero,zero,LAB_00106c24
        001062c8 14 00 60 ac  	   _sw        zero,0x14(v1)
                             LAB_001062cc                                    XREF[1]:     002ecf60(*)  
        001062cc 3c 07 06 0c  	   jal        MemoryAllocate                                   void * MemoryAllocate(uint memor
        001062d0 0c 00 04 24  	   _li        a0,0xc
        001062d4 ff 00 03 3c  	   lui        v1,0xff
        001062d8 2f 00 04 3c  	   lui        a0,0x2f
        001062dc 2d 28 40 00  	   move       a1,v0
        001062e0 4a 02 00 10  	   beq        zero,zero,LAB_00106c0c
        001062e4 88 e7 84 24  	   _addiu     a0,a0,-0x1878
                             LAB_001062e8                                    XREF[1]:     002ecf88(*)  
        001062e8 3c 07 06 0c  	   jal        MemoryAllocate                                   void * MemoryAllocate(uint memor
        001062ec 0c 00 04 24  	   _li        a0,0xc
        001062f0 ff 00 03 3c  	   lui        v1,0xff
        001062f4 2f 00 04 3c  	   lui        a0,0x2f
        001062f8 2d 28 40 00  	   move       a1,v0
        001062fc 43 02 00 10  	   beq        zero,zero,LAB_00106c0c
        00106300 88 eb 84 24  	   _addiu     a0,a0,-0x1478
                             LAB_00106304                                    XREF[1]:     002ecdcc(*)  
        00106304 3c 07 06 0c  	   jal        MemoryAllocate                                   void * MemoryAllocate(uint memor
        00106308 0c 00 04 24  	   _li        a0,0xc
        0010630c ff 00 03 3c  	   lui        v1,0xff
        00106310 2f 00 04 3c  	   lui        a0,0x2f
        00106314 2d 28 40 00  	   move       a1,v0
        00106318 3c 02 00 10  	   beq        zero,zero,LAB_00106c0c
        0010631c b0 1d 84 24  	   _addiu     a0,a0,0x1db0
                             LAB_00106320                                    XREF[1]:     002ecdd0(*)  
        00106320 3c 07 06 0c  	   jal        MemoryAllocate                                   void * MemoryAllocate(uint memor
        00106324 0c 00 04 24  	   _li        a0,0xc
        00106328 ff 00 03 3c  	   lui        v1,0xff
        0010632c 2f 00 04 3c  	   lui        a0,0x2f
        00106330 2d 28 40 00  	   move       a1,v0
        00106334 35 02 00 10  	   beq        zero,zero,LAB_00106c0c
        00106338 70 1d 84 24  	   _addiu     a0,a0,0x1d70
                             LAB_0010633c                                    XREF[1]:     002ecdd4(*)  
        0010633c 3c 07 06 0c  	   jal        MemoryAllocate                                   void * MemoryAllocate(uint memor
        00106340 10 00 04 24  	   _li        a0,0x10
        00106344 2d 18 40 00  	   move       v1,v0
        00106348 2f 00 04 3c  	   lui        a0,0x2f
        0010634c 0c 00 66 8c  	   lw         a2,0xc(v1)
        00106350 ff 00 02 3c  	   lui        v0,0xff
        00106354 ff ff 42 34  	   ori        v0,v0,0xffff
        00106358 fe ff 05 24  	   li         a1,-0x2
        0010635c 30 1d 84 24  	   addiu      a0,a0,0x1d30
        00106360 24 30 c5 00  	   and        a2,a2,a1
        00106364 00 00 62 ac  	   sw         v0,0x0(v1)
        00106368 2d 10 60 00  	   move       v0,v1
        0010636c 30 00 00 10  	   beq        zero,zero,LAB_00106430
        00106370 08 00 64 ac  	   _sw        a0=>DAT_002f1d30,0x8(v1)
                             LAB_00106374                                    XREF[1]:     002ecdd8(*)  
        00106374 3c 07 06 0c  	   jal        MemoryAllocate                                   void * MemoryAllocate(uint memor
        00106378 0c 00 04 24  	   _li        a0,0xc
        0010637c ff 00 03 3c  	   lui        v1,0xff
        00106380 2f 00 04 3c  	   lui        a0,0x2f
        00106384 2d 28 40 00  	   move       a1,v0
        00106388 20 02 00 10  	   beq        zero,zero,LAB_00106c0c
        0010638c f0 1c 84 24  	   _addiu     a0,a0,0x1cf0
                             LAB_00106390                                    XREF[1]:     002ecd8c(*)  
        00106390 3c 07 06 0c  	   jal        MemoryAllocate                                   void * MemoryAllocate(uint memor
        00106394 0c 00 04 24  	   _li        a0,0xc
        00106398 ff 00 03 3c  	   lui        v1,0xff
        0010639c 2f 00 04 3c  	   lui        a0,0x2f
        001063a0 2d 28 40 00  	   move       a1,v0
        001063a4 19 02 00 10  	   beq        zero,zero,LAB_00106c0c
        001063a8 08 ff 84 24  	   _addiu     a0,a0,-0xf8
                             LAB_001063ac                                    XREF[1]:     002ecd94(*)  
        001063ac 3c 07 06 0c  	   jal        MemoryAllocate                                   void * MemoryAllocate(uint memor
        001063b0 10 00 04 24  	   _li        a0,0x10
        001063b4 ff 00 04 3c  	   lui        a0,0xff
        001063b8 2f 00 05 3c  	   lui        a1,0x2f
        001063bc 2d 18 40 00  	   move       v1,v0
        001063c0 c8 fe a5 24  	   addiu      a1=>DAT_002efec8,a1,-0x138
        001063c4 ff ff 84 34  	   ori        a0,a0,0xffff
        001063c8 17 00 00 10  	   beq        zero,zero,LAB_00106428
        001063cc ff ff 06 24  	   _li        a2,-0x1
                             LAB_001063d0                                    XREF[1]:     002ecd50(*)  
        001063d0 3c 07 06 0c  	   jal        MemoryAllocate                                   void * MemoryAllocate(uint memor
        001063d4 0c 00 04 24  	   _li        a0,0xc
        001063d8 ff 00 03 3c  	   lui        v1,0xff
        001063dc 2f 00 04 3c  	   lui        a0,0x2f
        001063e0 2d 28 40 00  	   move       a1,v0
        001063e4 09 02 00 10  	   beq        zero,zero,LAB_00106c0c
        001063e8 88 fe 84 24  	   _addiu     a0,a0,-0x178
                             LAB_001063ec                                    XREF[1]:     002ecd98(*)  
        001063ec 3c 07 06 0c  	   jal        MemoryAllocate                                   void * MemoryAllocate(uint memor
        001063f0 0c 00 04 24  	   _li        a0,0xc
        001063f4 ff 00 03 3c  	   lui        v1,0xff
        001063f8 2f 00 04 3c  	   lui        a0,0x2f
        001063fc 2d 28 40 00  	   move       a1,v0
        00106400 02 02 00 10  	   beq        zero,zero,LAB_00106c0c
        00106404 48 fe 84 24  	   _addiu     a0,a0,-0x1b8
                             LAB_00106408                                    XREF[1]:     002ecd34(*)  
        00106408 3c 07 06 0c  	   jal        MemoryAllocate                                   void * MemoryAllocate(uint memor
        0010640c 10 00 04 24  	   _li        a0,0x10
        00106410 ff 00 04 3c  	   lui        a0,0xff
        00106414 2f 00 05 3c  	   lui        a1,0x2f
        00106418 2d 18 40 00  	   move       v1,v0
        0010641c 08 fe a5 24  	   addiu      a1=>DAT_002efe08,a1,-0x1f8
                             LAB_00106420                                    XREF[1]:     00103340(j)  
        00106420 ff ff 84 34  	   ori        a0,a0,0xffff
        00106424 01 00 06 24  	   li         a2,0x1
                             LAB_00106428                                    XREF[3]:     0010593c(j), 00105960(j), 
                                                                                          001063c8(j)  
        00106428 00 00 64 ac  	   sw         a0,0x0(v1)
        0010642c 08 00 65 ac  	   sw         a1=>DAT_002efe08,0x8(v1)
                             LAB_00106430                                    XREF[10]:    00102480(j), 001024b8(j), 
                                                                                          001027a0(j), 001032d8(j), 
                                                                                          00103e78(j), 00103eb0(j), 
                                                                                          001047d8(j), 00105614(j), 
                                                                                          00106074(j), 0010636c(j)  
        00106430 0c 00 66 ac  	   sw         a2,0xc(v1)
        00106434 fb 01 00 10  	   beq        zero,zero,LAB_00106c24
        00106438 04 00 60 ac  	   _sw        zero,0x4(v1)
                             LAB_0010643c                                    XREF[1]:     002ecd9c(*)  
        0010643c 3c 07 06 0c  	   jal        MemoryAllocate                                   void * MemoryAllocate(uint memor
        00106440 1c 00 04 24  	   _li        a0,0x1c
        00106444 b0 a4 04 0c  	   jal        FUN_001292c0                                     undefined8 FUN_001292c0(undefine
        00106448 2d 20 40 00  	   _move      a0,v0
        0010644c f6 01 00 10  	   beq        zero,zero,LAB_00106c28
        00106450 30 00 b0 df  	   _ld        s0,0x30(sp)
                             LAB_00106454                                    XREF[1]:     002ecda0(*)  
        00106454 3c 07 06 0c  	   jal        MemoryAllocate                                   void * MemoryAllocate(uint memor
        00106458 24 00 04 24  	   _li        a0,0x24
        0010645c 2d 80 40 00  	   move       s0,v0
        00106460 f0 ff 03 24  	   li         v1,-0x10
        00106464 0c 00 02 8e  	   lw         v0,0xc(s0)
        00106468 ef ff 04 24  	   li         a0,-0x11
        0010646c df ff 07 24  	   li         a3,-0x21
        00106470 14 00 00 ae  	   sw         zero,0x14(s0)
        00106474 24 10 43 00  	   and        v0,v0,v1
        00106478 bf ff 06 24  	   li         a2,-0x41
        0010647c 01 00 42 34  	   ori        v0,v0,0x1
        00106480 20 41 01 3c  	   lui        at,0x4120
        00106484 00 00 81 44  	   mtc1       at,f0
        00106488 24 10 44 00  	   and        v0,v0,a0
        0010648c 80 3f 01 3c  	   lui        at,0x3f80
        00106490 00 08 81 44  	   mtc1       at,f1
        00106494 24 10 47 00  	   and        v0,v0,a3
        00106498 7f ff 04 24  	   li         a0,-0x81
        0010649c 24 10 46 00  	   and        v0,v0,a2
        001064a0 ff 00 05 3c  	   lui        a1,0xff
        001064a4 2f 00 03 3c  	   lui        v1,0x2f
        001064a8 24 10 44 00  	   and        v0,v0,a0
        001064ac 70 1c 63 24  	   addiu      v1,v1,0x1c70
        001064b0 ff ff a5 34  	   ori        a1,a1,0xffff
        001064b4 14 00 0c c6  	   lwc1       f12,0x14(s0)
        001064b8 20 00 04 26  	   addiu      a0,s0,0x20
        001064bc 00 00 05 ae  	   sw         a1,0x0(s0)
        001064c0 08 00 03 ae  	   sw         v1=>DAT_002f1c70,0x8(s0)
        001064c4 0c 00 02 ae  	   sw         v0,0xc(s0)
        001064c8 10 00 00 e6  	   swc1       f0,0x10(s0)
        001064cc 18 00 01 e6  	   swc1       f1,0x18(s0)
        001064d0 04 00 00 ae  	   sw         zero,0x4(s0)
        001064d4 aa 01 00 10  	   beq        zero,zero,LAB_00106b80
        001064d8 1c 00 00 ae  	   _sw        zero,0x1c(s0)
                             LAB_001064dc                                    XREF[1]:     002ecdc0(*)  
        001064dc 3c 07 06 0c  	   jal        MemoryAllocate                                   void * MemoryAllocate(uint memor
        001064e0 30 00 04 24  	   _li        a0,0x30
        001064e4 ff 00 03 3c  	   lui        v1,0xff
        001064e8 2f 00 04 3c  	   lui        a0,0x2f
        001064ec 2d 80 40 00  	   move       s0,v0
        001064f0 30 1c 84 24  	   addiu      a0,a0,0x1c30
        001064f4 ff ff 63 34  	   ori        v1,v1,0xffff
        001064f8 80 3f 01 3c  	   lui        at,0x3f80
        001064fc 00 00 81 44  	   mtc1       at,f0
        00106500 00 00 03 ae  	   sw         v1,0x0(s0)
        00106504 10 00 02 26  	   addiu      v0,s0,0x10
        00106508 08 00 04 ae  	   sw         a0=>DAT_002f1c30,0x8(s0)
        0010650c 04 00 00 ae  	   sw         zero,0x4(s0)
        00106510 20 00 04 26  	   addiu      a0,s0,0x20
        00106514 10 00 00 ae  	   sw         zero,0x10(s0)
        00106518 0c 00 40 e4  	   swc1       f0,0xc(v0)
        0010651c 04 00 40 ac  	   sw         zero,0x4(v0)
        00106520 76 70 04 0c  	   jal        SetUndefinedID?                                  undefined SetUndefinedID?(short 
        00106524 08 00 40 ac  	   _sw        zero,0x8(v0)
        00106528 ff ff 02 34  	   ori        v0,zero,0xffff
        0010652c ff 00 03 24  	   li         v1,0xff
        00106530 22 00 02 a6  	   sh         v0,0x22(s0)
        00106534 ff 8f 04 3c  	   lui        a0,0x8fff
        00106538 ff ff 84 34  	   ori        a0,a0,0xffff
        0010653c 38 23 04 00  	   dsll       a0,a0,0xc
        00106540 ff 0f 84 34  	   ori        a0,a0,0xfff
        00106544 24 00 03 a2  	   sb         v1,0x24(s0)
        00106548 00 80 05 34  	   ori        a1,zero,0x8000
        0010654c b8 2e 05 00  	   dsll       a1,a1,0x1a
        00106550 ff bf 09 3c  	   lui        t1,0xbfff
        00106554 ff ff 29 35  	   ori        t1,t1,0xffff
        00106558 78 4b 09 00  	   dsll       t1,t1,0xd
        0010655c ff 1f 29 35  	   ori        t1,t1,0x1fff
        00106560 00 80 0a 34  	   ori        t2,zero,0x8000
        00106564 78 57 0a 00  	   dsll       t2,t2,0x1d
        00106568 20 00 03 de  	   ld         v1,0x20(s0)
        0010656c ff bf 06 3c  	   lui        a2,0xbfff
        00106570 ff ff c6 34  	   ori        a2,a2,0xffff
        00106574 f8 33 06 00  	   dsll       a2,a2,0xf
        00106578 ff 7f c6 34  	   ori        a2,a2,0x7fff
        0010657c ff bf 07 3c  	   lui        a3,0xbfff
        00106580 ff ff e7 34  	   ori        a3,a3,0xffff
        00106584 38 3c 07 00  	   dsll       a3,a3,0x10
        00106588 ff ff e7 34  	   ori        a3,a3,0xffff
        0010658c ff bf 08 3c  	   lui        t0,0xbfff
        00106590 ff ff 08 35  	   ori        t0,t0,0xffff
        00106594 38 44 08 00  	   dsll       t0,t0,0x10
        00106598 ff ff 08 35  	   ori        t0,t0,0xffff
        0010659c 78 40 08 00  	   dsll       t0,t0,0x1
        001065a0 01 00 08 35  	   ori        t0,t0,0x1
        001065a4 24 18 64 00  	   and        v1,v1,a0
        001065a8 2d 10 00 02  	   move       v0,s0
        001065ac 25 18 65 00  	   or         v1,v1,a1
        001065b0 28 00 00 ae  	   sw         zero,0x28(s0)
        001065b4 24 18 69 00  	   and        v1,v1,t1
        001065b8 25 18 6a 00  	   or         v1,v1,t2
        001065bc 24 18 66 00  	   and        v1,v1,a2
        001065c0 24 18 67 00  	   and        v1,v1,a3
        001065c4 24 18 68 00  	   and        v1,v1,t0
        001065c8 96 01 00 10  	   beq        zero,zero,LAB_00106c24
        001065cc 20 00 03 fe  	   _sd        v1,0x20(s0)
                             LAB_001065d0                                    XREF[1]:     002ecdc4(*)  
        001065d0 3c 07 06 0c  	   jal        MemoryAllocate                                   void * MemoryAllocate(uint memor
        001065d4 50 00 04 24  	   _li        a0,0x50
        001065d8 34 73 04 0c  	   jal        FUN_0011ccd0                                     undefined8 FUN_0011ccd0(undefine
        001065dc 2d 20 40 00  	   _move      a0,v0
        001065e0 91 01 00 10  	   beq        zero,zero,LAB_00106c28
        001065e4 30 00 b0 df  	   _ld        s0,0x30(sp)
                             LAB_001065e8                                    XREF[1]:     002ece24(*)  
        001065e8 3c 07 06 0c  	   jal        MemoryAllocate                                   void * MemoryAllocate(uint memor
        001065ec 18 00 04 24  	   _li        a0,0x18
        001065f0 2d 28 40 00  	   move       a1,v0
        001065f4 f3 ff 07 24  	   li         a3,-0xd
        001065f8 0c 00 a3 8c  	   lw         v1,0xc(a1)
        001065fc fc ff 02 24  	   li         v0,-0x4
        00106600 cf ff 08 24  	   li         t0,-0x31
        00106604 80 3f 01 3c  	   lui        at,0x3f80
        00106608 00 00 81 44  	   mtc1       at,f0
        0010660c 24 18 62 00  	   and        v1,v1,v0
        00106610 ff 00 06 3c  	   lui        a2,0xff
        00106614 24 18 67 00  	   and        v1,v1,a3
        00106618 bf ff 02 24  	   li         v0,-0x41
        0010661c 2f 00 04 3c  	   lui        a0,0x2f
        00106620 24 18 68 00  	   and        v1,v1,t0
        00106624 24 18 62 00  	   and        v1,v1,v0
        00106628 08 f8 84 24  	   addiu      a0,a0,-0x7f8
        0010662c ff ff c6 34  	   ori        a2,a2,0xffff
        00106630 08 00 a4 ac  	   sw         a0=>DAT_002ef808,0x8(a1)
        00106634 00 00 a6 ac  	   sw         a2,0x0(a1)
        00106638 2d 10 a0 00  	   move       v0,a1
        0010663c 0c 00 a3 ac  	   sw         v1,0xc(a1)
        00106640 14 00 a0 e4  	   swc1       f0,0x14(a1)
        00106644 04 00 a0 ac  	   sw         zero,0x4(a1)
        00106648 76 01 00 10  	   beq        zero,zero,LAB_00106c24
        0010664c 10 00 a0 e4  	   _swc1      f0,0x10(a1)
                             LAB_00106650                                    XREF[1]:     002ecd40(*)  
        00106650 3c 07 06 0c  	   jal        MemoryAllocate                                   void * MemoryAllocate(uint memor
        00106654 10 00 04 24  	   _li        a0,offset DAT_fffffff3
        00106658 ff 00 03 3c  	   lui        v1,0xff
        0010665c 2f 00 04 3c  	   lui        a0,0x2f
        00106660 2d 28 40 00  	   move       a1,v0
        00106664 36 00 00 10  	   beq        zero,zero,LAB_00106740
        00106668 08 fd 84 24  	   _addiu     a0,a0,-0x2f8
                             LAB_0010666c                                    XREF[1]:     002ece08(*)  
        0010666c 3c 07 06 0c  	   jal        MemoryAllocate                                   void * MemoryAllocate(uint memor
        00106670 0c 00 04 24  	   _li        a0,offset DAT_fffffff3
        00106674 ff 00 03 3c  	   lui        v1,0xff
        00106678 2f 00 04 3c  	   lui        a0,0x2f
        0010667c 2d 28 40 00  	   move       a1,v0
        00106680 62 01 00 10  	   beq        zero,zero,LAB_00106c0c
        00106684 48 f1 84 24  	   _addiu     a0,a0,-0xeb8
                             LAB_00106688                                    XREF[1]:     002ece0c(*)  
        00106688 3c 07 06 0c  	   jal        MemoryAllocate                                   void * MemoryAllocate(uint memor
        0010668c 0c 00 04 24  	   _li        a0,offset DAT_fffffff3
        00106690 ff 00 03 3c  	   lui        v1,0xff
        00106694 2f 00 04 3c  	   lui        a0,0x2f
        00106698 2d 28 40 00  	   move       a1,v0
        0010669c 5b 01 00 10  	   beq        zero,zero,LAB_00106c0c
        001066a0 08 f1 84 24  	   _addiu     a0,a0,-0xef8
                             LAB_001066a4                                    XREF[1]:     002ece10(*)  
        001066a4 3c 07 06 0c  	   jal        MemoryAllocate                                   void * MemoryAllocate(uint memor
        001066a8 2c 00 04 24  	   _li        a0,offset DAT_fffffff3
        001066ac ff 00 04 3c  	   lui        a0,0xff
        001066b0 2f 00 05 3c  	   lui        a1,0x2f
        001066b4 20 41 01 3c  	   lui        at,0x4120
        001066b8 00 08 81 44  	   mtc1       at,f1
        001066bc 2d 18 40 00  	   move       v1,v0
        001066c0 70 42 01 3c  	   lui        at,0x4270
        001066c4 00 00 81 44  	   mtc1       at,f0
        001066c8 ff ff 06 34  	   ori        a2,zero,0xffff
        001066cc f0 1b a5 24  	   addiu      a1=>DAT_002f1bf0,a1,0x1bf0
        001066d0 ff ff 84 34  	   ori        a0,a0,0xffff
        001066d4 00 00 64 ac  	   sw         a0,0x0(v1)
        001066d8 08 00 65 ac  	   sw         a1=>DAT_002f1bf0,0x8(v1)
        001066dc 0c 00 61 e4  	   swc1       f1,0xc(v1)
        001066e0 1c 00 60 e4  	   swc1       f0,0x1c(v1)
        001066e4 28 00 66 a4  	   sh         a2,0x28(v1)
        001066e8 04 00 60 ac  	   sw         zero,0x4(v1)
        001066ec 10 00 60 ac  	   sw         zero,0x10(v1)
        001066f0 14 00 60 ac  	   sw         zero,0x14(v1)
        001066f4 18 00 60 ac  	   sw         zero,0x18(v1)
        001066f8 20 00 66 a4  	   sh         a2,0x20(v1)
        001066fc 22 00 66 a4  	   sh         a2,0x22(v1)
        00106700 24 00 66 a4  	   sh         a2,0x24(v1)
        00106704 47 01 00 10  	   beq        zero,zero,LAB_00106c24
        00106708 26 00 66 a4  	   _sh        a2,0x26(v1)
                             LAB_0010670c                                    XREF[1]:     002ece14(*)  
        0010670c 3c 07 06 0c  	   jal        MemoryAllocate                                   void * MemoryAllocate(uint memor
        00106710 10 00 04 24  	   _li        a0,offset DAT_fffffff3
        00106714 ff 00 03 3c  	   lui        v1,0xff
        00106718 2f 00 04 3c  	   lui        a0,0x2f
        0010671c 2d 28 40 00  	   move       a1,v0
        00106720 ba 00 00 10  	   beq        zero,zero,LAB_00106a0c
        00106724 b0 1a 84 24  	   _addiu     a0,a0,0x1ab0
                             LAB_00106728                                    XREF[1]:     002ece18(*)  
        00106728 3c 07 06 0c  	   jal        MemoryAllocate                                   void * MemoryAllocate(uint memor
        0010672c 10 00 04 24  	   _li        a0,offset DAT_fffffff3
        00106730 ff 00 03 3c  	   lui        v1,0xff
        00106734 2f 00 04 3c  	   lui        a0,0x2f
        00106738 2d 28 40 00  	   move       a1,v0
        0010673c b0 1b 84 24  	   addiu      a0,a0,0x1bb0
                             LAB_00106740                                    XREF[1]:     00106664(j)  
        00106740 ff ff 63 34  	   ori        v1,v1,0xffff
        00106744 08 00 a4 ac  	   sw         a0=>DAT_002f1bb0,0x8(a1)
        00106748 00 00 a3 ac  	   sw         v1,0x0(a1)
        0010674c 04 00 a0 ac  	   sw         zero,0x4(a1)
        00106750 0c 00 a0 a0  	   sb         zero,0xc(a1)
        00106754 33 01 00 10  	   beq        zero,zero,LAB_00106c24
        00106758 0d 00 a0 a0  	   _sb        zero,0xd(a1)
                             LAB_0010675c                                    XREF[1]:     002ecddc(*)  
        0010675c 3c 07 06 0c  	   jal        MemoryAllocate                                   void * MemoryAllocate(uint memor
        00106760 18 00 04 24  	   _li        a0,offset DAT_fffffff3
        00106764 ff 00 05 3c  	   lui        a1,0xff
        00106768 2f 00 04 3c  	   lui        a0,0x2f
        0010676c 2d 18 40 00  	   move       v1,v0
        00106770 30 1b 84 24  	   addiu      a0,a0,0x1b30
        00106774 ff ff a5 34  	   ori        a1,a1,0xffff
        00106778 08 00 64 ac  	   sw         a0=>DAT_002f1b30,0x8(v1)
        0010677c 00 00 65 ac  	   sw         a1,0x0(v1)
        00106780 04 00 60 ac  	   sw         zero,0x4(v1)
        00106784 0c 00 60 a0  	   sb         zero,0xc(v1)
        00106788 0d 00 60 a0  	   sb         zero,0xd(v1)
                             LAB_0010678c                                    XREF[1]:     00104f14(j)  
        0010678c 10 00 60 ac  	   sw         zero,0x10(v1)
        00106790 24 01 00 10  	   beq        zero,zero,LAB_00106c24
        00106794 14 00 60 ac  	   _sw        zero,0x14(v1)
                             LAB_00106798                                    XREF[1]:     002ece1c(*)  
        00106798 3c 07 06 0c  	   jal        MemoryAllocate                                   void * MemoryAllocate(uint memor
        0010679c 10 00 04 24  	   _li        a0,offset DAT_fffffff3
        001067a0 2d 18 40 00  	   move       v1,v0
        001067a4 2f 00 05 3c  	   lui        a1,0x2f
        001067a8 0c 00 60 a0  	   sb         zero,0xc(v1)
        001067ac ff 00 02 3c  	   lui        v0,0xff
        001067b0 ff ff 42 34  	   ori        v0,v0,0xffff
        001067b4 ff fe 06 24  	   li         a2,-0x101
        001067b8 0c 00 64 8c  	   lw         a0,0xc(v1)
        001067bc f0 1a a5 24  	   addiu      a1=>DAT_002f1af0,a1,0x1af0
        001067c0 00 00 62 ac  	   sw         v0,0x0(v1)
        001067c4 24 20 86 00  	   and        a0,a0,a2
        001067c8 2d 10 60 00  	   move       v0,v1
        001067cc 08 00 65 ac  	   sw         a1=>DAT_002f1af0,0x8(v1)
                             LAB_001067d0                                    XREF[8]:     00101a60(j), 00101f24(j), 
                                                                                          00102218(j), 001038ec(j), 
                                                                                          00103fa0(j), 0010447c(j), 
                                                                                          0010558c(j), 00105d98(j)  
        001067d0 0c 00 64 ac  	   sw         a0,0xc(v1)
        001067d4 13 01 00 10  	   beq        zero,zero,LAB_00106c24
        001067d8 04 00 60 ac  	   _sw        zero,0x4(v1)
                             LAB_001067dc                                    XREF[1]:     002ece94(*)  
        001067dc 3c 07 06 0c  	   jal        MemoryAllocate                                   void * MemoryAllocate(uint memor
        001067e0 0c 00 04 24  	   _li        a0,offset DAT_fffffff3
        001067e4 ff 00 03 3c  	   lui        v1,0xff
        001067e8 2f 00 04 3c  	   lui        a0,0x2f
        001067ec 2d 28 40 00  	   move       a1,v0
        001067f0 06 01 00 10  	   beq        zero,zero,LAB_00106c0c
        001067f4 70 1b 84 24  	   _addiu     a0,a0,0x1b70
                             LAB_001067f8                                    XREF[1]:     002ece20(*)  
        001067f8 3c 07 06 0c  	   jal        MemoryAllocate                                   void * MemoryAllocate(uint memor
        001067fc 94 00 04 24  	   _li        a0,offset DAT_fffffff3
        00106800 2f 00 04 3c  	   lui        a0,0x2f
        00106804 2d 80 40 00  	   move       s0,v0
        00106808 f0 19 84 24  	   addiu      a0,a0,0x19f0
        0010680c ff 00 03 3c  	   lui        v1,0xff
        00106810 ff ff 63 34  	   ori        v1,v1,0xffff
        00106814 08 00 04 ae  	   sw         a0=>DAT_002f19f0,0x8(s0)
        00106818 00 00 03 ae  	   sw         v1,0x0(s0)
        0010681c 0c 00 04 26  	   addiu      a0,s0,0xc
        00106820 04 00 00 ae  	   sw         zero,0x4(s0)
        00106824 2d 28 00 00  	   move       a1,zero
        00106828 01 00 06 24  	   li         a2,0x1
                             LAB_0010682c                                    XREF[3]:     00102e34(j), 00103e04(j), 
                                                                                          00103f08(j)  
        0010682c b0 fc 08 0c  	   jal        FUN_0023f2c0                                     undefined8 FUN_0023f2c0(undefine
        00106830 00 00 00 00  	   _nop
        00106834 fb 00 00 10  	   beq        zero,zero,LAB_00106c24
        00106838 2d 10 00 02  	   _move      v0,s0
                             LAB_0010683c                                    XREF[1]:     002ece50(*)  
        0010683c 3c 07 06 0c  	   jal        MemoryAllocate                                   void * MemoryAllocate(uint memor
        00106840 0c 00 04 24  	   _li        a0,offset DAT_fffffff3
        00106844 ff 00 03 3c  	   lui        v1,0xff
        00106848 2f 00 04 3c  	   lui        a0,0x2f
        0010684c 2d 28 40 00  	   move       a1,v0
        00106850 ee 00 00 10  	   beq        zero,zero,LAB_00106c0c
        00106854 88 f8 84 24  	   _addiu     a0,a0,-0x778
                             LAB_00106858                                    XREF[1]:     002ece58(*)  
        00106858 3c 07 06 0c  	   jal        MemoryAllocate                                   void * MemoryAllocate(uint memor
        0010685c 10 00 04 24  	   _li        a0,offset DAT_fffffff3
        00106860 ff 00 03 3c  	   lui        v1,0xff
        00106864 2f 00 04 3c  	   lui        a0,0x2f
        00106868 2d 28 40 00  	   move       a1,v0
        0010686c c8 e6 84 24  	   addiu      a0,a0,-0x1938
                             LAB_00106870                                    XREF[1]:     0010374c(j)  
        00106870 ff ff 63 34  	   ori        v1,v1,0xffff
        00106874 08 00 a4 ac  	   sw         a0=>DAT_002ee6c8,0x8(a1)
        00106878 00 00 a3 ac  	   sw         v1,0x0(a1)
        0010687c 04 00 a0 ac  	   sw         zero,0x4(a1)
        00106880 e8 00 00 10  	   beq        zero,zero,LAB_00106c24
        00106884 0c 00 a0 a4  	   _sh        zero,0xc(a1)
                             LAB_00106888                                    XREF[1]:     002ecf28(*)  
        00106888 3c 07 06 0c  	   jal        MemoryAllocate                                   void * MemoryAllocate(uint memor
        0010688c 18 00 04 24  	   _li        a0,offset DAT_fffffff3
        00106890 2f 00 04 3c  	   lui        a0,0x2f
        00106894 ff ff 05 3c  	   lui        a1,0xffff
        00106898 2d 80 40 00  	   move       s0,v0
        0010689c 08 f6 84 24  	   addiu      a0,a0,-0x9f8
        001068a0 ff ff a5 34  	   ori        a1,a1,0xffff
        001068a4 ff 00 03 3c  	   lui        v1,0xff
        001068a8 ff ff 63 34  	   ori        v1,v1,0xffff
        001068ac 08 00 04 ae  	   sw         a0=>DAT_002ef608,0x8(s0)
        001068b0 0c 00 05 ae  	   sw         a1,0xc(s0)
        001068b4 10 00 04 26  	   addiu      a0,s0,0x10
        001068b8 00 00 03 ae  	   sw         v1,0x0(s0)
        001068bc 2d 28 00 00  	   move       a1,zero
        001068c0 40 26 08 0c  	   jal        FUN_00209900                                     undefined FUN_00209900(int * par
        001068c4 04 00 00 ae  	   _sw        zero,0x4(s0)=>DAT_fffffff3
        001068c8 80 3f 01 3c  	   lui        at,0x3f80
        001068cc 00 00 81 44  	   mtc1       at,f0
        001068d0 2d 10 00 02  	   move       v0,s0
        001068d4 d3 00 00 10  	   beq        zero,zero,LAB_00106c24
        001068d8 14 00 00 e6  	   _swc1      f0,0x14(s0)
                             LAB_001068dc                                    XREF[1]:     002ecf2c(*)  
        001068dc 3c 07 06 0c  	   jal        MemoryAllocate                                   void * MemoryAllocate(uint memor
        001068e0 10 00 04 24  	   _li        a0,offset DAT_fffffff3
        001068e4 ff 00 03 3c  	   lui        v1,0xff
        001068e8 2f 00 04 3c  	   lui        a0,0x2f
        001068ec 2d 28 40 00  	   move       a1,v0
        001068f0 46 00 00 10  	   beq        zero,zero,LAB_00106a0c
        001068f4 c8 f5 84 24  	   _addiu     a0,a0,-0xa38
                             LAB_001068f8                                    XREF[1]:     002ecf30(*)  
        001068f8 3c 07 06 0c  	   jal        MemoryAllocate                                   void * MemoryAllocate(uint memor
        001068fc 0c 00 04 24  	   _li        a0,offset DAT_fffffff3
        00106900 ff 00 03 3c  	   lui        v1,0xff
        00106904 2f 00 04 3c  	   lui        a0,0x2f
        00106908 2d 28 40 00  	   move       a1,v0
        0010690c bf 00 00 10  	   beq        zero,zero,LAB_00106c0c
        00106910 88 f5 84 24  	   _addiu     a0,a0,-0xa78
                             LAB_00106914                                    XREF[1]:     002ece80(*)  
        00106914 3c 07 06 0c  	   jal        MemoryAllocate                                   void * MemoryAllocate(uint memor
        00106918 18 00 04 24  	   _li        a0,offset DAT_fffffff3
        0010691c ff 00 03 3c  	   lui        v1,0xff
        00106920 2f 00 05 3c  	   lui        a1,0x2f
        00106924 ff ff 06 3c  	   lui        a2,0xffff
        00106928 2d 80 40 00  	   move       s0,v0
        0010692c 48 f5 a5 24  	   addiu      a1=>DAT_002ef548,a1,-0xab8
        00106930 ff ff 63 34  	   ori        v1,v1,0xffff
        00106934 ff ff c6 34  	   ori        a2,a2,0xffff
        00106938 00 60 80 44  	   clear      f12
        0010693c 00 00 03 ae  	   sw         v1,0x0(s0)
        00106940 10 00 04 26  	   addiu      a0,s0,0x10
        00106944 08 00 05 ae  	   sw         a1=>DAT_002ef548,0x8(s0)
        00106948 0c 00 06 ae  	   sw         a2,0xc(s0)
        0010694c 36 26 08 0c  	   jal        FUN_002098d8                                     undefined8 FUN_002098d8(uint par
        00106950 04 00 00 ae  	   _sw        zero,0x4(s0)=>DAT_fffffff3
        00106954 14 00 04 26  	   addiu      a0,s0,0x14
                             LAB_00106958                                    XREF[2]:     0010191c(j), 0010194c(j)  
        00106958 2d 28 00 00  	   move       a1,zero
                             LAB_0010695c                                    XREF[2]:     00104fa4(j), 0010508c(j)  
        0010695c 40 26 08 0c  	   jal        FUN_00209900                                     undefined FUN_00209900(int * par
        00106960 00 00 00 00  	   _nop
        00106964 af 00 00 10  	   beq        zero,zero,LAB_00106c24
        00106968 2d 10 00 02  	   _move      v0,s0
                             LAB_0010696c                                    XREF[1]:     002ece84(*)  
        0010696c 3c 07 06 0c  	   jal        MemoryAllocate                                   void * MemoryAllocate(uint memor
        00106970 10 00 04 24  	   _li        a0,offset DAT_fffffff3
        00106974 ff 00 03 3c  	   lui        v1,0xff
        00106978 2f 00 04 3c  	   lui        a0,0x2f
        0010697c 2d 28 40 00  	   move       a1,v0
        00106980 22 00 00 10  	   beq        zero,zero,LAB_00106a0c
        00106984 08 f5 84 24  	   _addiu     a0,a0,-0xaf8
                             LAB_00106988                                    XREF[1]:     002ece88(*)  
        00106988 3c 07 06 0c  	   jal        MemoryAllocate                                   void * MemoryAllocate(uint memor
        0010698c 0c 00 04 24  	   _li        a0,offset DAT_fffffff3
        00106990 ff 00 03 3c  	   lui        v1,0xff
        00106994 2f 00 04 3c  	   lui        a0,0x2f
        00106998 2d 28 40 00  	   move       a1,v0
        0010699c 9b 00 00 10  	   beq        zero,zero,LAB_00106c0c
        001069a0 c8 f4 84 24  	   _addiu     a0,a0,-0xb38
                             LAB_001069a4                                    XREF[1]:     002ecf48(*)  
        001069a4 3c 07 06 0c  	   jal        MemoryAllocate                                   void * MemoryAllocate(uint memor
        001069a8 10 00 04 24  	   _li        a0,offset DAT_fffffff3
        001069ac ff 00 04 3c  	   lui        a0,0xff
        001069b0 2f 00 05 3c  	   lui        a1,0x2f
        001069b4 2d 18 40 00  	   move       v1,v0
        001069b8 08 f2 a5 24  	   addiu      a1=>DAT_002ef208,a1,-0xdf8
                             LAB_001069bc                                    XREF[3]:     00101ee4(j), 00101fb8(j), 
                                                                                          00102448(j)  
        001069bc ff ff 84 34  	   ori        a0,a0,0xffff
        001069c0 ff 00 06 24  	   li         a2,0xff
        001069c4 00 00 64 ac  	   sw         a0,0x0(v1)
        001069c8 08 00 65 ac  	   sw         a1=>DAT_002ef208,0x8(v1)
        001069cc 0c 00 66 a0  	   sb         a2,0xc(v1)
        001069d0 94 00 00 10  	   beq        zero,zero,LAB_00106c24
        001069d4 04 00 60 ac  	   _sw        zero,0x4(v1)
                             LAB_001069d8                                    XREF[1]:     002ecf5c(*)  
        001069d8 3c 07 06 0c  	   jal        MemoryAllocate                                   void * MemoryAllocate(uint memor
        001069dc 10 00 04 24  	   _li        a0,offset DAT_fffffff3
        001069e0 ff 00 03 3c  	   lui        v1,0xff
        001069e4 2f 00 04 3c  	   lui        a0,0x2f
        001069e8 2d 28 40 00  	   move       a1,v0
        001069ec 07 00 00 10  	   beq        zero,zero,LAB_00106a0c
        001069f0 30 1a 84 24  	   _addiu     a0,a0,0x1a30
                             LAB_001069f4                                    XREF[1]:     002ecf58(*)  
        001069f4 3c 07 06 0c  	   jal        MemoryAllocate                                   void * MemoryAllocate(uint memor
        001069f8 10 00 04 24  	   _li        a0,offset DAT_fffffff3
        001069fc ff 00 03 3c  	   lui        v1,0xff
        00106a00 2f 00 04 3c  	   lui        a0,0x2f
        00106a04 2d 28 40 00  	   move       a1,v0
        00106a08 70 1a 84 24  	   addiu      a0,a0,0x1a70
                             LAB_00106a0c                                    XREF[14]:    00103158(j), 00103174(j), 
                                                                                          00103190(j), 001031ac(j), 
                                                                                          001031c8(j), 001031e4(j), 
                                                                                          0010351c(j), 00103538(j), 
                                                                                          00105d24(j), 00105dcc(j), 
                                                                                          00106720(j), 001068f0(j), 
                                                                                          00106980(j), 001069ec(j)  
        00106a0c ff ff 63 34  	   ori        v1,v1,0xffff
        00106a10 08 00 a4 ac  	   sw         a0=>DAT_002f1a70,0x8(a1)
        00106a14 00 00 a3 ac  	   sw         v1,0x0(a1)
        00106a18 04 00 a0 ac  	   sw         zero,0x4(a1)
        00106a1c 81 00 00 10  	   beq        zero,zero,LAB_00106c24
        00106a20 0c 00 a0 ac  	   _sw        zero,0xc(a1)
                             LAB_00106a24                                    XREF[1]:     002ecf10(*)  
        00106a24 3c 07 06 0c  	   jal        MemoryAllocate                                   void * MemoryAllocate(uint memor
        00106a28 10 00 04 24  	   _li        a0,offset DAT_fffffff3
        00106a2c ff 00 04 3c  	   lui        a0,0xff
        00106a30 2f 00 05 3c  	   lui        a1,0x2f
        00106a34 2d 18 40 00  	   move       v1,v0
        00106a38 ff 00 06 24  	   li         a2,0xff
        00106a3c b0 19 a5 24  	   addiu      a1=>DAT_002f19b0,a1,0x19b0
        00106a40 ff ff 84 34  	   ori        a0,a0,0xffff
        00106a44 00 00 64 ac  	   sw         a0,0x0(v1)
        00106a48 08 00 65 ac  	   sw         a1=>DAT_002f19b0,0x8(v1)
        00106a4c 0d 00 66 a0  	   sb         a2,0xd(v1)
        00106a50 04 00 60 ac  	   sw         zero,0x4(v1)
        00106a54 73 00 00 10  	   beq        zero,zero,LAB_00106c24
        00106a58 0c 00 66 a0  	   _sb        a2,0xc(v1)
                             LAB_00106a5c                                    XREF[1]:     002ecf6c(*)  
        00106a5c 3c 07 06 0c  	   jal        MemoryAllocate                                   void * MemoryAllocate(uint memor
        00106a60 28 00 04 24  	   _li        a0,offset DAT_fffffff3
        00106a64 2d 18 40 00  	   move       v1,v0
        00106a68 2f 00 04 3c  	   lui        a0,0x2f
        00106a6c 24 00 66 8c  	   lw         a2,0x24(v1)
        00106a70 ff 00 02 3c  	   lui        v0,0xff
        00106a74 ff ff 42 34  	   ori        v0,v0,0xffff
        00106a78 f0 ff 05 24  	   li         a1,-0x10
        00106a7c a0 e5 84 24  	   addiu      a0,a0,-0x1a60
        00106a80 24 30 c5 00  	   and        a2,a2,a1
        00106a84 00 00 62 ac  	   sw         v0,0x0(v1)
        00106a88 2d 10 60 00  	   move       v0,v1
        00106a8c 08 00 64 ac  	   sw         a0=>DAT_002ee5a0,0x8(v1)
        00106a90 24 00 66 ac  	   sw         a2,0x24(v1)
        00106a94 63 00 00 10  	   beq        zero,zero,LAB_00106c24
        00106a98 04 00 60 ac  	   _sw        zero,0x4(v1)
                             LAB_00106a9c                                    XREF[1]:     002ecf84(*)  
        00106a9c 3c 07 06 0c  	   jal        MemoryAllocate                                   void * MemoryAllocate(uint memor
        00106aa0 68 00 04 24  	   _li        a0,offset DAT_fffffff3
        00106aa4 2d 28 40 00  	   move       a1,v0
        00106aa8 f0 ff 07 24  	   li         a3,-0x10
        00106aac 64 00 a3 8c  	   lw         v1,0x64(a1)
        00106ab0 0f fe 08 24  	   li         t0,-0x1f1
        00106ab4 ff 00 02 3c  	   lui        v0,0xff
        00106ab8 2f 00 04 3c  	   lui        a0,0x2f
        00106abc 24 18 67 00  	   and        v1,v1,a3
        00106ac0 ff ff 42 34  	   ori        v0,v0,0xffff
        00106ac4 ff fd 06 24  	   li         a2,-0x201
        00106ac8 24 18 68 00  	   and        v1,v1,t0
        00106acc 78 e4 84 24  	   addiu      a0,a0,-0x1b88
        00106ad0 24 18 66 00  	   and        v1,v1,a2
        00106ad4 00 00 a2 ac  	   sw         v0,0x0(a1)
        00106ad8 2d 10 a0 00  	   move       v0,a1
        00106adc 08 00 a4 ac  	   sw         a0=>DAT_002ee478,0x8(a1)
        00106ae0 64 00 a3 ac  	   sw         v1,0x64(a1)
        00106ae4 4f 00 00 10  	   beq        zero,zero,LAB_00106c24
        00106ae8 04 00 a0 ac  	   _sw        zero,0x4(a1)
                             LAB_00106aec                                    XREF[1]:     002ecf70(*)  
        00106aec 3c 07 06 0c  	   jal        MemoryAllocate                                   void * MemoryAllocate(uint memor
        00106af0 0c 00 04 24  	   _li        a0,0xc
        00106af4 ff 00 03 3c  	   lui        v1,0xff
        00106af8 2f 00 04 3c  	   lui        a0,0x2f
        00106afc 2d 28 40 00  	   move       a1,v0
        00106b00 42 00 00 10  	   beq        zero,zero,LAB_00106c0c
        00106b04 e0 e5 84 24  	   _addiu     a0,a0,-0x1a20
                             LAB_00106b08                                    XREF[1]:     002ecf78(*)  
        00106b08 3c 07 06 0c  	   jal        MemoryAllocate                                   void * MemoryAllocate(uint memor
        00106b0c 28 00 04 24  	   _li        a0,0x28
        00106b10 ff 00 03 3c  	   lui        v1,0xff
        00106b14 2f 00 05 3c  	   lui        a1,0x2f
        00106b18 2d 80 40 00  	   move       s0,v0
        00106b1c f0 e4 a5 24  	   addiu      a1=>DAT_002ee4f0,a1,-0x1b10
        00106b20 ff ff 63 34  	   ori        v1,v1,0xffff
        00106b24 00 60 80 44  	   clear      f12
        00106b28 00 00 03 ae  	   sw         v1,0x0(s0)
        00106b2c 0c 00 04 26  	   addiu      a0,s0,0xc
        00106b30 08 00 05 ae  	   sw         a1=>DAT_002ee4f0,0x8(s0)
        00106b34 36 26 08 0c  	   jal        FUN_002098d8                                     undefined8 FUN_002098d8(uint par
        00106b38 04 00 00 ae  	   _sw        zero,0x4(s0)
        00106b3c 00 60 80 44  	   clear      f12
        00106b40 36 26 08 0c  	   jal        FUN_002098d8                                     undefined8 FUN_002098d8(uint par
        00106b44 10 00 04 26  	   _addiu     a0,s0,0x10
        00106b48 00 60 80 44  	   clear      f12
        00106b4c 36 26 08 0c  	   jal        FUN_002098d8                                     undefined8 FUN_002098d8(uint par
        00106b50 14 00 04 26  	   _addiu     a0,s0,0x14
        00106b54 00 60 80 44  	   clear      f12
        00106b58 36 26 08 0c  	   jal        FUN_002098d8                                     undefined8 FUN_002098d8(uint par
        00106b5c 18 00 04 26  	   _addiu     a0,s0,0x18
        00106b60 00 60 80 44  	   clear      f12
        00106b64 36 26 08 0c  	   jal        FUN_002098d8                                     undefined8 FUN_002098d8(uint par
        00106b68 1c 00 04 26  	   _addiu     a0,s0,0x1c
        00106b6c 00 60 80 44  	   clear      f12
        00106b70 36 26 08 0c  	   jal        FUN_002098d8                                     undefined8 FUN_002098d8(uint par
        00106b74 20 00 04 26  	   _addiu     a0,s0,0x20
        00106b78 00 60 80 44  	   clear      f12
        00106b7c 24 00 04 26  	   addiu      a0,s0,0x24
                             LAB_00106b80                                    XREF[4]:     00103a58(j), 00104ee4(j), 
                                                                                          00105850(j), 001064d4(j)  
        00106b80 36 26 08 0c  	   jal        FUN_002098d8                                     undefined8 FUN_002098d8(uint par
        00106b84 00 00 00 00  	   _nop
        00106b88 26 00 00 10  	   beq        zero,zero,LAB_00106c24
        00106b8c 2d 10 00 02  	   _move      v0,s0
                             LAB_00106b90                                    XREF[1]:     002ecf24(*)  
        00106b90 3c 07 06 0c  	   jal        MemoryAllocate                                   void * MemoryAllocate(uint memor
        00106b94 0c 00 04 24  	   _li        a0,0xc
        00106b98 ff 00 03 3c  	   lui        v1,0xff
        00106b9c 2f 00 04 3c  	   lui        a0,0x2f
        00106ba0 2d 28 40 00  	   move       a1,v0
        00106ba4 19 00 00 10  	   beq        zero,zero,LAB_00106c0c
        00106ba8 70 19 84 24  	   _addiu     a0,a0,0x1970
                             LAB_00106bac                                    XREF[1]:     002ecf18(*)  
        00106bac 3c 07 06 0c  	   jal        MemoryAllocate                                   void * MemoryAllocate(uint memor
        00106bb0 14 00 04 24  	   _li        a0,0x14
        00106bb4 ff 00 04 3c  	   lui        a0,0xff
        00106bb8 2d 80 40 00  	   move       s0,v0
        00106bbc ff ff 84 34  	   ori        a0,a0,0xffff
        00106bc0 2f 00 03 3c  	   lui        v1,0x2f
        00106bc4 88 f2 63 24  	   addiu      v1,v1,-0xd78
        00106bc8 00 00 04 ae  	   sw         a0,0x0(s0)
        00106bcc 08 00 03 ae  	   sw         v1=>DAT_002ef288,0x8(s0)
        00106bd0 0c 00 04 26  	   addiu      a0,s0,0xc
        00106bd4 04 00 00 ae  	   sw         zero,0x4(s0)
        00106bd8 40 26 08 0c  	   jal        FUN_00209900                                     undefined FUN_00209900(int * par
        00106bdc 2d 28 00 00  	   _move      a1,zero
        00106be0 80 3e 01 3c  	   lui        at,0x3e80
        00106be4 00 00 81 44  	   mtc1       at,f0
        00106be8 2d 10 00 02  	   move       v0,s0
        00106bec 0d 00 00 10  	   beq        zero,zero,LAB_00106c24
        00106bf0 10 00 00 e6  	   _swc1      f0,0x10(s0)
                             LAB_00106bf4                                    XREF[1]:     002ecf20(*)  
        00106bf4 3c 07 06 0c  	   jal        MemoryAllocate                                   void * MemoryAllocate(uint memor
        00106bf8 10 00 04 24  	   _li        a0,0x10
        00106bfc ff 00 03 3c  	   lui        v1,0xff
        00106c00 2f 00 04 3c  	   lui        a0,0x2f
        00106c04 2d 28 40 00  	   move       a1,v0
        00106c08 f0 18 84 24  	   addiu      a0,a0,0x18f0
                             LAB_00106c0c                                    XREF[103]:   001029a0(j), 00102c30(j), 
                                                                                          00102c4c(j), 00102c68(j), 
                                                                                          00102f1c(j), 00103200(j), 
                                                                                          001032f4(j), 00103378(j), 
                                                                                          0010345c(j), 00103554(j), 
                                                                                          00103570(j), 00103658(j), 
                                                                                          00103908(j), 00103924(j), 
                                                                                          00103940(j), 0010395c(j), 
                                                                                          00103994(j), 00103a08(j), 
                                                                                          00103a24(j), 00103ab4(j), [more]
        00106c0c ff ff 63 34  	   ori        v1,v1,0xffff
        00106c10 08 00 a4 ac  	   sw         a0=>DAT_002f18f0,0x8(a1)
        00106c14 00 00 a3 ac  	   sw         v1,0x0(a1)
        00106c18 02 00 00 10  	   beq        zero,zero,LAB_00106c24
        00106c1c 04 00 a0 ac  	   _sw        zero,0x4(a1)
                             LAB_00106c20                                    XREF[317]:   002ec530(*), 002ec548(*), 
                                                                                          002ec580(*), 002ec584(*), 
                                                                                          002ec588(*), 002ec594(*), 
                                                                                          002ec598(*), 002ec5a8(*), 
                                                                                          002ec5b0(*), 002ec5c4(*), 
                                                                                          002ec5c8(*), 002ec5d4(*), 
                                                                                          002ec5dc(*), 002ec5e8(*), 
                                                                                          002ec618(*), 002ec654(*), 
                                                                                          002ec6dc(*), 002ec890(*), 
                                                                                          002ec894(*), 002ec898(*), [more]
        00106c20 2d 10 00 00  	   move       v0,zero
                             LAB_00106c24                                    XREF[100]:   0010242c(j), 001025e0(j), 
                                                                                          00102628(j), 00102718(j), 
                                                                                          00102984(j), 00102aac(j), 
                                                                                          00102b80(j), 00102c14(j), 
                                                                                          00102d20(j), 00102d8c(j), 
                                                                                          00102dfc(j), 00102f00(j), 
                                                                                          00103044(j), 0010313c(j), 
                                                                                          0010325c(j), 001032a0(j), 
                                                                                          00103324(j), 00103440(j), 
                                                                                          001034c8(j), 0010363c(j), [more]
        00106c24 30 00 b0 df  	   ld         s0,local_30(sp)
                             LAB_00106c28                                    XREF[17]:    00101ff0(j), 0010200c(j), 
                                                                                          00102750(j), 00102768(j), 
                                                                                          00102f34(j), 001039ac(j), 
                                                                                          00103bac(j), 
                                                                                          FUN_0010555c:00105a90(j), 
                                                                                          FUN_0010555c:00105ac4(j), 
                                                                                          FUN_0010555c:00105b78(j), 
                                                                                          FUN_0010555c:00105bc4(j), 
                                                                                          FUN_0010555c:00105bfc(j), 
                                                                                          FUN_0010555c:00105d3c(j), 
                                                                                          FUN_0010555c:00105d54(j), 
                                                                                          FUN_0010555c:00105db0(j), 
                                                                                          FUN_0010555c:0010644c(j), 
                                                                                          FUN_0010555c:001065e0(j)  
        00106c28 38 00 b1 df  	   ld         s1,local_28(sp)
        00106c2c 40 00 b2 df  	   ld         s2,local_20(sp)
        00106c30 48 00 bf df  	   ld         ra,local_18(sp)
        00106c34 50 00 b4 c7  	   lwc1       f20,local_10(sp)
        00106c38 08 00 e0 03  	   jr         ra
        00106c3c 60 00 bd 27  	   _addiu     sp,sp,0x60
